(lp0
ccopy_reg
_reconstructor
p1
(c__main__
CombinedData
p2
c__builtin__
object
p3
Ntp4
Rp5
(dp6
S'cta_data'
p7
g1
(ccta_data
CTAData
p8
g3
Ntp9
Rp10
(dp11
S'date'
p12
cdatetime
datetime
p13
(S'\x07\xda\x01\x02\x00\x00\x00\x00\x00\x00'
p14
tp15
Rp16
sS'daytype'
p17
VA
p18
sS'station'
p19
VBelmont-North Main
p20
sS'rides'
p21
V6094
p22
sbsS'weather_data'
p23
g1
(cweather_underground_data
WeatherData
p24
g3
Ntp25
Rp26
(dp27
S'snow_depth'
p28
F2.0
sS'temp'
p29
F8.0
sS'snow'
p30
I01
sS'rain'
p31
I00
sS'snow_fall'
p32
F0.0
sS'rain_fall'
p33
F0.0
sg12
g16
sbsbag1
(g2
g3
Ntp34
Rp35
(dp36
g7
g1
(g8
g3
Ntp37
Rp38
(dp39
g12
g13
(S'\x07\xd9\x01\x01\x00\x00\x00\x00\x00\x00'
p40
tp41
Rp42
sg17
VU
p43
sg19
VBelmont-North Main
p44
sg21
V6767
p45
sbsg23
g1
(g24
g3
Ntp46
Rp47
(dp48
g28
I-1
sg29
F24.0
sg30
I00
sg31
I00
sg32
F0.0
sg33
F0.0
sg12
g42
sbsbag1
(g2
g3
Ntp49
Rp50
(dp51
g7
g1
(g8
g3
Ntp52
Rp53
(dp54
g12
g13
(S'\x07\xd9\x01\x02\x00\x00\x00\x00\x00\x00'
p55
tp56
Rp57
sg17
VW
p58
sg19
VBelmont-North Main
p59
sg21
V9331
p60
sbsg23
g1
(g24
g3
Ntp61
Rp62
(dp63
g28
I-1
sg29
F24.0
sg30
I00
sg31
I00
sg32
F0.0
sg33
F0.0
sg12
g57
sbsbag1
(g2
g3
Ntp64
Rp65
(dp66
g7
g1
(g8
g3
Ntp67
Rp68
(dp69
g12
g13
(S'\x07\xd9\x01\x03\x00\x00\x00\x00\x00\x00'
p70
tp71
Rp72
sg17
VA
p73
sg19
VBelmont-North Main
p74
sg21
V7703
p75
sbsg23
g1
(g24
g3
Ntp76
Rp77
(dp78
g28
I-1
sg29
F28.0
sg30
I00
sg31
I01
sg32
F0.0
sg33
F0.0
sg12
g72
sbsbag1
(g2
g3
Ntp79
Rp80
(dp81
g7
g1
(g8
g3
Ntp82
Rp83
(dp84
g12
g13
(S'\x07\xd9\x01\x04\x00\x00\x00\x00\x00\x00'
p85
tp86
Rp87
sg17
VU
p88
sg19
VBelmont-North Main
p89
sg21
V5491
p90
sbsg23
g1
(g24
g3
Ntp91
Rp92
(dp93
g28
I-1
sg29
F28.0
sg30
I00
sg31
I01
sg32
F0.0
sg33
F0.02
sg12
g87
sbsbag1
(g2
g3
Ntp94
Rp95
(dp96
g7
g1
(g8
g3
Ntp97
Rp98
(dp99
g12
g13
(S'\x07\xd9\x01\x05\x00\x00\x00\x00\x00\x00'
p100
tp101
Rp102
sg17
VW
p103
sg19
VBelmont-North Main
p104
sg21
V10664
p105
sbsg23
g1
(g24
g3
Ntp106
Rp107
(dp108
g28
I-1
sg29
F20.0
sg30
I00
sg31
I00
sg32
F0.0
sg33
F0.0
sg12
g102
sbsbag1
(g2
g3
Ntp109
Rp110
(dp111
g7
g1
(g8
g3
Ntp112
Rp113
(dp114
g12
g13
(S'\x07\xd9\x01\x06\x00\x00\x00\x00\x00\x00'
p115
tp116
Rp117
sg17
VW
p118
sg19
VBelmont-North Main
p119
sg21
V10980
p120
sbsg23
g1
(g24
g3
Ntp121
Rp122
(dp123
g28
I-1
sg29
F26.0
sg30
I01
sg31
I00
sg32
F0.0
sg33
F0.01
sg12
g117
sbsbag1
(g2
g3
Ntp124
Rp125
(dp126
g7
g1
(g8
g3
Ntp127
Rp128
(dp129
g12
g13
(S'\x07\xd9\x01\x07\x00\x00\x00\x00\x00\x00'
p130
tp131
Rp132
sg17
VW
p133
sg19
VBelmont-North Main
p134
sg21
V10930
p135
sbsg23
g1
(g24
g3
Ntp136
Rp137
(dp138
g28
F1.0
sg29
F21.0
sg30
I01
sg31
I00
sg32
F0.0
sg33
F0.03
sg12
g132
sbsbag1
(g2
g3
Ntp139
Rp140
(dp141
g7
g1
(g8
g3
Ntp142
Rp143
(dp144
g12
g13
(S'\x07\xd9\x01\x08\x00\x00\x00\x00\x00\x00'
p145
tp146
Rp147
sg17
VW
p148
sg19
VBelmont-North Main
p149
sg21
V11195
p150
sbsg23
g1
(g24
g3
Ntp151
Rp152
(dp153
g28
F1.0
sg29
F16.0
sg30
I01
sg31
I00
sg32
F0.0
sg33
F0.0
sg12
g147
sbsbag1
(g2
g3
Ntp154
Rp155
(dp156
g7
g1
(g8
g3
Ntp157
Rp158
(dp159
g12
g13
(S'\x07\xd9\x01\t\x00\x00\x00\x00\x00\x00'
p160
tp161
Rp162
sg17
VW
p163
sg19
VBelmont-North Main
p164
sg21
V12122
p165
sbsg23
g1
(g24
g3
Ntp166
Rp167
(dp168
g28
F3.0
sg29
F21.0
sg30
I01
sg31
I00
sg32
F0.0
sg33
F0.13
sg12
g162
sbsbag1
(g2
g3
Ntp169
Rp170
(dp171
g7
g1
(g8
g3
Ntp172
Rp173
(dp174
g12
g13
(S'\x07\xd9\x01\n\x00\x00\x00\x00\x00\x00'
p175
tp176
Rp177
sg17
VA
p178
sg19
VBelmont-North Main
p179
sg21
V8356
p180
sbsg23
g1
(g24
g3
Ntp181
Rp182
(dp183
g28
F7.0
sg29
F24.0
sg30
I01
sg31
I00
sg32
F0.0
sg33
F0.12
sg12
g177
sbsbag1
(g2
g3
Ntp184
Rp185
(dp186
g7
g1
(g8
g3
Ntp187
Rp188
(dp189
g12
g13
(S'\x07\xd9\x01\x0b\x00\x00\x00\x00\x00\x00'
p190
tp191
Rp192
sg17
VU
p193
sg19
VBelmont-North Main
p194
sg21
V6326
p195
sbsg23
g1
(g24
g3
Ntp196
Rp197
(dp198
g28
F7.0
sg29
F19.0
sg30
I01
sg31
I00
sg32
F0.0
sg33
F0.0
sg12
g192
sbsbag1
(g2
g3
Ntp199
Rp200
(dp201
g7
g1
(g8
g3
Ntp202
Rp203
(dp204
g12
g13
(S'\x07\xd9\x01\x0c\x00\x00\x00\x00\x00\x00'
p205
tp206
Rp207
sg17
VW
p208
sg19
VBelmont-North Main
p209
sg21
V11287
p210
sbsg23
g1
(g24
g3
Ntp211
Rp212
(dp213
g28
F8.0
sg29
F22.0
sg30
I01
sg31
I00
sg32
F0.0
sg33
F0.11
sg12
g207
sbsbag1
(g2
g3
Ntp214
Rp215
(dp216
g7
g1
(g8
g3
Ntp217
Rp218
(dp219
g12
g13
(S'\x07\xd9\x01\r\x00\x00\x00\x00\x00\x00'
p220
tp221
Rp222
sg17
VW
p223
sg19
VBelmont-North Main
p224
sg21
V11520
p225
sbsg23
g1
(g24
g3
Ntp226
Rp227
(dp228
g28
F9.0
sg29
F16.0
sg30
I01
sg31
I00
sg32
F0.0
sg33
F0.01
sg12
g222
sbsbag1
(g2
g3
Ntp229
Rp230
(dp231
g7
g1
(g8
g3
Ntp232
Rp233
(dp234
g12
g13
(S'\x07\xd9\x01\x0e\x00\x00\x00\x00\x00\x00'
p235
tp236
Rp237
sg17
VW
p238
sg19
VBelmont-North Main
p239
sg21
V11138
p240
sbsg23
g1
(g24
g3
Ntp241
Rp242
(dp243
g28
F9.0
sg29
F10.0
sg30
I01
sg31
I00
sg32
F0.0
sg33
F0.05
sg12
g237
sbsbag1
(g2
g3
Ntp244
Rp245
(dp246
g7
g1
(g8
g3
Ntp247
Rp248
(dp249
g12
g13
(S'\x07\xd9\x01\x0f\x00\x00\x00\x00\x00\x00'
p250
tp251
Rp252
sg17
VW
p253
sg19
VBelmont-North Main
p254
sg21
V9682
p255
sbsg23
g1
(g24
g3
Ntp256
Rp257
(dp258
g28
F7.0
sg29
F-6.0
sg30
I01
sg31
I00
sg32
F0.0
sg33
F0.0
sg12
g252
sbsbag1
(g2
g3
Ntp259
Rp260
(dp261
g7
g1
(g8
g3
Ntp262
Rp263
(dp264
g12
g13
(S'\x07\xd9\x01\x10\x00\x00\x00\x00\x00\x00'
p265
tp266
Rp267
sg17
VW
p268
sg19
VBelmont-North Main
p269
sg21
V10267
p270
sbsg23
g1
(g24
g3
Ntp271
Rp272
(dp273
g28
F6.0
sg29
F-7.0
sg30
I00
sg31
I00
sg32
F0.0
sg33
F0.0
sg12
g267
sbsbag1
(g2
g3
Ntp274
Rp275
(dp276
g7
g1
(g8
g3
Ntp277
Rp278
(dp279
g12
g13
(S'\x07\xd9\x01\x11\x00\x00\x00\x00\x00\x00'
p280
tp281
Rp282
sg17
VA
p283
sg19
VBelmont-North Main
p284
sg21
V8237
p285
sbsg23
g1
(g24
g3
Ntp286
Rp287
(dp288
g28
F6.0
sg29
F15.0
sg30
I01
sg31
I00
sg32
F0.0
sg33
F0.0
sg12
g282
sbsbag1
(g2
g3
Ntp289
Rp290
(dp291
g7
g1
(g8
g3
Ntp292
Rp293
(dp294
g12
g13
(S'\x07\xd9\x01\x12\x00\x00\x00\x00\x00\x00'
p295
tp296
Rp297
sg17
VU
p298
sg19
VBelmont-North Main
p299
sg21
V6562
p300
sbsg23
g1
(g24
g3
Ntp301
Rp302
(dp303
g28
F5.0
sg29
F14.0
sg30
I01
sg31
I00
sg32
F0.0
sg33
F0.0
sg12
g297
sbsbag1
(g2
g3
Ntp304
Rp305
(dp306
g7
g1
(g8
g3
Ntp307
Rp308
(dp309
g12
g13
(S'\x07\xd9\x01\x13\x00\x00\x00\x00\x00\x00'
p310
tp311
Rp312
sg17
VW
p313
sg19
VBelmont-North Main
p314
sg21
V8763
p315
sbsg23
g1
(g24
g3
Ntp316
Rp317
(dp318
g28
F5.0
sg29
F18.0
sg30
I00
sg31
I00
sg32
F0.0
sg33
F0.0
sg12
g312
sbsbag1
(g2
g3
Ntp319
Rp320
(dp321
g7
g1
(g8
g3
Ntp322
Rp323
(dp324
g12
g13
(S'\x07\xd9\x01\x14\x00\x00\x00\x00\x00\x00'
p325
tp326
Rp327
sg17
VW
p328
sg19
VBelmont-North Main
p329
sg21
V11402
p330
sbsg23
g1
(g24
g3
Ntp331
Rp332
(dp333
g28
F4.0
sg29
F18.0
sg30
I01
sg31
I00
sg32
F0.0
sg33
F0.0
sg12
g327
sbsbag1
(g2
g3
Ntp334
Rp335
(dp336
g7
g1
(g8
g3
Ntp337
Rp338
(dp339
g12
g13
(S'\x07\xd9\x01\x15\x00\x00\x00\x00\x00\x00'
p340
tp341
Rp342
sg17
VW
p343
sg19
VBelmont-North Main
p344
sg21
V11384
p345
sbsg23
g1
(g24
g3
Ntp346
Rp347
(dp348
g28
F4.0
sg29
F20.0
sg30
I00
sg31
I00
sg32
F0.0
sg33
F0.0
sg12
g342
sbsbag1
(g2
g3
Ntp349
Rp350
(dp351
g7
g1
(g8
g3
Ntp352
Rp353
(dp354
g12
g13
(S'\x07\xd9\x01\x16\x00\x00\x00\x00\x00\x00'
p355
tp356
Rp357
sg17
VW
p358
sg19
VBelmont-North Main
p359
sg21
V12060
p360
sbsg23
g1
(g24
g3
Ntp361
Rp362
(dp363
g28
F4.0
sg29
F26.0
sg30
I00
sg31
I00
sg32
F0.0
sg33
F0.0
sg12
g357
sbsbag1
(g2
g3
Ntp364
Rp365
(dp366
g7
g1
(g8
g3
Ntp367
Rp368
(dp369
g12
g13
(S'\x07\xd9\x01\x17\x00\x00\x00\x00\x00\x00'
p370
tp371
Rp372
sg17
VW
p373
sg19
VBelmont-North Main
p374
sg21
V11950
p375
sbsg23
g1
(g24
g3
Ntp376
Rp377
(dp378
g28
F3.0
sg29
F26.0
sg30
I00
sg31
I00
sg32
F0.0
sg33
F0.0
sg12
g372
sbsbag1
(g2
g3
Ntp379
Rp380
(dp381
g7
g1
(g8
g3
Ntp382
Rp383
(dp384
g12
g13
(S'\x07\xd9\x01\x18\x00\x00\x00\x00\x00\x00'
p385
tp386
Rp387
sg17
VA
p388
sg19
VBelmont-North Main
p389
sg21
V8853
p390
sbsg23
g1
(g24
g3
Ntp391
Rp392
(dp393
g28
F3.0
sg29
F10.0
sg30
I00
sg31
I00
sg32
F0.0
sg33
F0.0
sg12
g387
sbsbag1
(g2
g3
Ntp394
Rp395
(dp396
g7
g1
(g8
g3
Ntp397
Rp398
(dp399
g12
g13
(S'\x07\xd9\x01\x19\x00\x00\x00\x00\x00\x00'
p400
tp401
Rp402
sg17
VU
p403
sg19
VBelmont-North Main
p404
sg21
V5637
p405
sbsg23
g1
(g24
g3
Ntp406
Rp407
(dp408
g28
F3.0
sg29
F9.0
sg30
I00
sg31
I00
sg32
F0.0
sg33
F0.0
sg12
g402
sbsbag1
(g2
g3
Ntp409
Rp410
(dp411
g7
g1
(g8
g3
Ntp412
Rp413
(dp414
g12
g13
(S'\x07\xd9\x01\x1a\x00\x00\x00\x00\x00\x00'
p415
tp416
Rp417
sg17
VW
p418
sg19
VBelmont-North Main
p419
sg21
V10921
p420
sbsg23
g1
(g24
g3
Ntp421
Rp422
(dp423
g28
F3.0
sg29
F12.0
sg30
I00
sg31
I00
sg32
F0.0
sg33
F0.0
sg12
g417
sbsbag1
(g2
g3
Ntp424
Rp425
(dp426
g7
g1
(g8
g3
Ntp427
Rp428
(dp429
g12
g13
(S'\x07\xd9\x01\x1b\x00\x00\x00\x00\x00\x00'
p430
tp431
Rp432
sg17
VW
p433
sg19
VBelmont-North Main
p434
sg21
V11605
p435
sbsg23
g1
(g24
g3
Ntp436
Rp437
(dp438
g28
F3.0
sg29
F16.0
sg30
I01
sg31
I00
sg32
F0.0
sg33
F0.0
sg12
g432
sbsbag1
(g2
g3
Ntp439
Rp440
(dp441
g7
g1
(g8
g3
Ntp442
Rp443
(dp444
g12
g13
(S'\x07\xd9\x01\x1c\x00\x00\x00\x00\x00\x00'
p445
tp446
Rp447
sg17
VW
p448
sg19
VBelmont-North Main
p449
sg21
V11634
p450
sbsg23
g1
(g24
g3
Ntp451
Rp452
(dp453
g28
F5.0
sg29
F16.0
sg30
I01
sg31
I00
sg32
F0.0
sg33
F0.0
sg12
g447
sbsbag1
(g2
g3
Ntp454
Rp455
(dp456
g7
g1
(g8
g3
Ntp457
Rp458
(dp459
g12
g13
(S'\x07\xd9\x01\x1d\x00\x00\x00\x00\x00\x00'
p460
tp461
Rp462
sg17
VW
p463
sg19
VBelmont-North Main
p464
sg21
V11945
p465
sbsg23
g1
(g24
g3
Ntp466
Rp467
(dp468
g28
F5.0
sg29
F20.0
sg30
I01
sg31
I00
sg32
F0.0
sg33
F0.0
sg12
g462
sbsbag1
(g2
g3
Ntp469
Rp470
(dp471
g7
g1
(g8
g3
Ntp472
Rp473
(dp474
g12
g13
(S'\x07\xd9\x03\x01\x00\x00\x00\x00\x00\x00'
p475
tp476
Rp477
sg17
VU
p478
sg19
VBelmont-North Main
p479
sg21
V5871
p480
sbsg23
g1
(g24
g3
Ntp481
Rp482
(dp483
g28
F2.0
sg29
F18.0
sg30
I01
sg31
I00
sg32
F0.0
sg33
F0.0
sg12
g477
sbsbag1
(g2
g3
Ntp484
Rp485
(dp486
g7
g1
(g8
g3
Ntp487
Rp488
(dp489
g12
g13
(S'\x07\xd9\x03\x02\x00\x00\x00\x00\x00\x00'
p490
tp491
Rp492
sg17
VW
p493
sg19
VBelmont-North Main
p494
sg21
V10755
p495
sbsg23
g1
(g24
g3
Ntp496
Rp497
(dp498
g28
F1.0
sg29
F18.0
sg30
I01
sg31
I00
sg32
F0.0
sg33
F0.0
sg12
g492
sbsbag1
(g2
g3
Ntp499
Rp500
(dp501
g7
g1
(g8
g3
Ntp502
Rp503
(dp504
g12
g13
(S'\x07\xd9\x03\x03\x00\x00\x00\x00\x00\x00'
p505
tp506
Rp507
sg17
VW
p508
sg19
VBelmont-North Main
p509
sg21
V11772
p510
sbsg23
g1
(g24
g3
Ntp511
Rp512
(dp513
g28
I-1
sg29
F24.0
sg30
I01
sg31
I00
sg32
F0.0
sg33
F0.0
sg12
g507
sbsbag1
(g2
g3
Ntp514
Rp515
(dp516
g7
g1
(g8
g3
Ntp517
Rp518
(dp519
g12
g13
(S'\x07\xd9\x03\x04\x00\x00\x00\x00\x00\x00'
p520
tp521
Rp522
sg17
VW
p523
sg19
VBelmont-North Main
p524
sg21
V11819
p525
sbsg23
g1
(g24
g3
Ntp526
Rp527
(dp528
g28
I-1
sg29
F36.0
sg30
I00
sg31
I00
sg32
F0.0
sg33
F0.0
sg12
g522
sbsbag1
(g2
g3
Ntp529
Rp530
(dp531
g7
g1
(g8
g3
Ntp532
Rp533
(dp534
g12
g13
(S'\x07\xd9\x03\x05\x00\x00\x00\x00\x00\x00'
p535
tp536
Rp537
sg17
VW
p538
sg19
VBelmont-North Main
p539
sg21
V12319
p540
sbsg23
g1
(g24
g3
Ntp541
Rp542
(dp543
g28
I-1
sg29
F52.0
sg30
I00
sg31
I00
sg32
F0.0
sg33
F0.0
sg12
g537
sbsbag1
(g2
g3
Ntp544
Rp545
(dp546
g7
g1
(g8
g3
Ntp547
Rp548
(dp549
g12
g13
(S'\x07\xd9\x03\x06\x00\x00\x00\x00\x00\x00'
p550
tp551
Rp552
sg17
VW
p553
sg19
VBelmont-North Main
p554
sg21
V12654
p555
sbsg23
g1
(g24
g3
Ntp556
Rp557
(dp558
g28
I-1
sg29
F54.0
sg30
I00
sg31
I00
sg32
F0.0
sg33
F0.0
sg12
g552
sbsbag1
(g2
g3
Ntp559
Rp560
(dp561
g7
g1
(g8
g3
Ntp562
Rp563
(dp564
g12
g13
(S'\x07\xd9\x03\x07\x00\x00\x00\x00\x00\x00'
p565
tp566
Rp567
sg17
VA
p568
sg19
VBelmont-North Main
p569
sg21
V8349
p570
sbsg23
g1
(g24
g3
Ntp571
Rp572
(dp573
g28
I-1
sg29
F42.0
sg30
I00
sg31
I01
sg32
F0.0
sg33
F1.25
sg12
g567
sbsbag1
(g2
g3
Ntp574
Rp575
(dp576
g7
g1
(g8
g3
Ntp577
Rp578
(dp579
g12
g13
(S'\x07\xd9\x03\x08\x00\x00\x00\x00\x00\x00'
p580
tp581
Rp582
sg17
VU
p583
sg19
VBelmont-North Main
p584
sg21
V5613
p585
sbsg23
g1
(g24
g3
Ntp586
Rp587
(dp588
g28
I-1
sg29
F45.0
sg30
I00
sg31
I01
sg32
F0.0
sg33
F1.73
sg12
g582
sbsbag1
(g2
g3
Ntp589
Rp590
(dp591
g7
g1
(g8
g3
Ntp592
Rp593
(dp594
g12
g13
(S'\x07\xd9\x03\t\x00\x00\x00\x00\x00\x00'
p595
tp596
Rp597
sg17
VW
p598
sg19
VBelmont-North Main
p599
sg21
V11398
p600
sbsg23
g1
(g24
g3
Ntp601
Rp602
(dp603
g28
I-1
sg29
F38.0
sg30
I00
sg31
I01
sg32
F0.0
sg33
F0.04
sg12
g597
sbsbag1
(g2
g3
Ntp604
Rp605
(dp606
g7
g1
(g8
g3
Ntp607
Rp608
(dp609
g12
g13
(S'\x07\xd9\x03\n\x00\x00\x00\x00\x00\x00'
p610
tp611
Rp612
sg17
VW
p613
sg19
VBelmont-North Main
p614
sg21
V11632
p615
sbsg23
g1
(g24
g3
Ntp616
Rp617
(dp618
g28
I-1
sg29
F52.0
sg30
I00
sg31
I01
sg32
F0.0
sg33
F0.98
sg12
g612
sbsbag1
(g2
g3
Ntp619
Rp620
(dp621
g7
g1
(g8
g3
Ntp622
Rp623
(dp624
g12
g13
(S'\x07\xd9\x03\x0b\x00\x00\x00\x00\x00\x00'
p625
tp626
Rp627
sg17
VW
p628
sg19
VBelmont-North Main
p629
sg21
V12206
p630
sbsg23
g1
(g24
g3
Ntp631
Rp632
(dp633
g28
I-1
sg29
F27.0
sg30
I00
sg31
I00
sg32
F0.0
sg33
F0.0
sg12
g627
sbsbag1
(g2
g3
Ntp634
Rp635
(dp636
g7
g1
(g8
g3
Ntp637
Rp638
(dp639
g12
g13
(S'\x07\xd9\x03\x0c\x00\x00\x00\x00\x00\x00'
p640
tp641
Rp642
sg17
VW
p643
sg19
VBelmont-North Main
p644
sg21
V12251
p645
sbsg23
g1
(g24
g3
Ntp646
Rp647
(dp648
g28
I-1
sg29
F20.0
sg30
I01
sg31
I00
sg32
F0.0
sg33
F0.0
sg12
g642
sbsbag1
(g2
g3
Ntp649
Rp650
(dp651
g7
g1
(g8
g3
Ntp652
Rp653
(dp654
g12
g13
(S'\x07\xd9\x03\r\x00\x00\x00\x00\x00\x00'
p655
tp656
Rp657
sg17
VW
p658
sg19
VBelmont-North Main
p659
sg21
V13572
p660
sbsg23
g1
(g24
g3
Ntp661
Rp662
(dp663
g28
I-1
sg29
F31.0
sg30
I00
sg31
I00
sg32
F0.0
sg33
F0.0
sg12
g657
sbsbag1
(g2
g3
Ntp664
Rp665
(dp666
g7
g1
(g8
g3
Ntp667
Rp668
(dp669
g12
g13
(S'\x07\xd9\x03\x0e\x00\x00\x00\x00\x00\x00'
p670
tp671
Rp672
sg17
VA
p673
sg19
VBelmont-North Main
p674
sg21
V12949
p675
sbsg23
g1
(g24
g3
Ntp676
Rp677
(dp678
g28
I-1
sg29
F38.0
sg30
I00
sg31
I00
sg32
F0.0
sg33
F0.0
sg12
g672
sbsbag1
(g2
g3
Ntp679
Rp680
(dp681
g7
g1
(g8
g3
Ntp682
Rp683
(dp684
g12
g13
(S'\x07\xd9\x03\x0f\x00\x00\x00\x00\x00\x00'
p685
tp686
Rp687
sg17
VU
p688
sg19
VBelmont-North Main
p689
sg21
V8212
p690
sbsg23
g1
(g24
g3
Ntp691
Rp692
(dp693
g28
I-1
sg29
F44.0
sg30
I00
sg31
I00
sg32
F0.0
sg33
F0.0
sg12
g687
sbsbag1
(g2
g3
Ntp694
Rp695
(dp696
g7
g1
(g8
g3
Ntp697
Rp698
(dp699
g12
g13
(S'\x07\xd9\x03\x10\x00\x00\x00\x00\x00\x00'
p700
tp701
Rp702
sg17
VW
p703
sg19
VBelmont-North Main
p704
sg21
V12148
p705
sbsg23
g1
(g24
g3
Ntp706
Rp707
(dp708
g28
I-1
sg29
F54.0
sg30
I00
sg31
I00
sg32
F0.0
sg33
F0.0
sg12
g702
sbsbag1
(g2
g3
Ntp709
Rp710
(dp711
g7
g1
(g8
g3
Ntp712
Rp713
(dp714
g12
g13
(S'\x07\xd9\x03\x11\x00\x00\x00\x00\x00\x00'
p715
tp716
Rp717
sg17
VW
p718
sg19
VBelmont-North Main
p719
sg21
V13077
p720
sbsg23
g1
(g24
g3
Ntp721
Rp722
(dp723
g28
I-1
sg29
F60.0
sg30
I00
sg31
I00
sg32
F0.0
sg33
F0.0
sg12
g717
sbsbag1
(g2
g3
Ntp724
Rp725
(dp726
g7
g1
(g8
g3
Ntp727
Rp728
(dp729
g12
g13
(S'\x07\xd9\x03\x12\x00\x00\x00\x00\x00\x00'
p730
tp731
Rp732
sg17
VW
p733
sg19
VBelmont-North Main
p734
sg21
V12764
p735
sbsg23
g1
(g24
g3
Ntp736
Rp737
(dp738
g28
I-1
sg29
F50.0
sg30
I00
sg31
I01
sg32
F0.0
sg33
F0.0
sg12
g732
sbsbag1
(g2
g3
Ntp739
Rp740
(dp741
g7
g1
(g8
g3
Ntp742
Rp743
(dp744
g12
g13
(S'\x07\xd9\x03\x13\x00\x00\x00\x00\x00\x00'
p745
tp746
Rp747
sg17
VW
p748
sg19
VBelmont-North Main
p749
sg21
V12472
p750
sbsg23
g1
(g24
g3
Ntp751
Rp752
(dp753
g28
I-1
sg29
F37.0
sg30
I00
sg31
I00
sg32
F0.0
sg33
F0.0
sg12
g747
sbsbag1
(g2
g3
Ntp754
Rp755
(dp756
g7
g1
(g8
g3
Ntp757
Rp758
(dp759
g12
g13
(S'\x07\xd9\x03\x14\x00\x00\x00\x00\x00\x00'
p760
tp761
Rp762
sg17
VW
p763
sg19
VBelmont-North Main
p764
sg21
V12423
p765
sbsg23
g1
(g24
g3
Ntp766
Rp767
(dp768
g28
I-1
sg29
F34.0
sg30
I00
sg31
I00
sg32
F0.0
sg33
F0.0
sg12
g762
sbsbag1
(g2
g3
Ntp769
Rp770
(dp771
g7
g1
(g8
g3
Ntp772
Rp773
(dp774
g12
g13
(S'\x07\xd9\x03\x15\x00\x00\x00\x00\x00\x00'
p775
tp776
Rp777
sg17
VA
p778
sg19
VBelmont-North Main
p779
sg21
V9800
p780
sbsg23
g1
(g24
g3
Ntp781
Rp782
(dp783
g28
I-1
sg29
F50.0
sg30
I00
sg31
I00
sg32
F0.0
sg33
F0.0
sg12
g777
sbsbag1
(g2
g3
Ntp784
Rp785
(dp786
g7
g1
(g8
g3
Ntp787
Rp788
(dp789
g12
g13
(S'\x07\xd9\x03\x16\x00\x00\x00\x00\x00\x00'
p790
tp791
Rp792
sg17
VU
p793
sg19
VBelmont-North Main
p794
sg21
V6758
p795
sbsg23
g1
(g24
g3
Ntp796
Rp797
(dp798
g28
I-1
sg29
F52.0
sg30
I00
sg31
I00
sg32
F0.0
sg33
F0.0
sg12
g792
sbsbag1
(g2
g3
Ntp799
Rp800
(dp801
g7
g1
(g8
g3
Ntp802
Rp803
(dp804
g12
g13
(S'\x07\xd9\x03\x17\x00\x00\x00\x00\x00\x00'
p805
tp806
Rp807
sg17
VW
p808
sg19
VBelmont-North Main
p809
sg21
V10711
p810
sbsg23
g1
(g24
g3
Ntp811
Rp812
(dp813
g28
I-1
sg29
F48.0
sg30
I00
sg31
I01
sg32
F0.0
sg33
F0.01
sg12
g807
sbsbag1
(g2
g3
Ntp814
Rp815
(dp816
g7
g1
(g8
g3
Ntp817
Rp818
(dp819
g12
g13
(S'\x07\xd9\x03\x18\x00\x00\x00\x00\x00\x00'
p820
tp821
Rp822
sg17
VW
p823
sg19
VBelmont-North Main
p824
sg21
V11312
p825
sbsg23
g1
(g24
g3
Ntp826
Rp827
(dp828
g28
I-1
sg29
F60.0
sg30
I00
sg31
I01
sg32
F0.0
sg33
F0.14
sg12
g822
sbsbag1
(g2
g3
Ntp829
Rp830
(dp831
g7
g1
(g8
g3
Ntp832
Rp833
(dp834
g12
g13
(S'\x07\xd9\x03\x19\x00\x00\x00\x00\x00\x00'
p835
tp836
Rp837
sg17
VW
p838
sg19
VBelmont-North Main
p839
sg21
V11589
p840
sbsg23
g1
(g24
g3
Ntp841
Rp842
(dp843
g28
I-1
sg29
F50.0
sg30
I00
sg31
I00
sg32
F0.0
sg33
F0.0
sg12
g837
sbsbag1
(g2
g3
Ntp844
Rp845
(dp846
g7
g1
(g8
g3
Ntp847
Rp848
(dp849
g12
g13
(S'\x07\xd9\x03\x1a\x00\x00\x00\x00\x00\x00'
p850
tp851
Rp852
sg17
VW
p853
sg19
VBelmont-North Main
p854
sg21
V11906
p855
sbsg23
g1
(g24
g3
Ntp856
Rp857
(dp858
g28
I-1
sg29
F48.0
sg30
I00
sg31
I00
sg32
F0.0
sg33
F0.0
sg12
g852
sbsbag1
(g2
g3
Ntp859
Rp860
(dp861
g7
g1
(g8
g3
Ntp862
Rp863
(dp864
g12
g13
(S'\x07\xd9\x03\x1b\x00\x00\x00\x00\x00\x00'
p865
tp866
Rp867
sg17
VW
p868
sg19
VBelmont-North Main
p869
sg21
V12032
p870
sbsg23
g1
(g24
g3
Ntp871
Rp872
(dp873
g28
I-1
sg29
F40.0
sg30
I00
sg31
I00
sg32
F0.0
sg33
F0.0
sg12
g867
sbsbag1
(g2
g3
Ntp874
Rp875
(dp876
g7
g1
(g8
g3
Ntp877
Rp878
(dp879
g12
g13
(S'\x07\xd9\x03\x1c\x00\x00\x00\x00\x00\x00'
p880
tp881
Rp882
sg17
VA
p883
sg19
VBelmont-North Main
p884
sg21
V8290
p885
sbsg23
g1
(g24
g3
Ntp886
Rp887
(dp888
g28
I-1
sg29
F35.0
sg30
I01
sg31
I01
sg32
F0.0
sg33
F0.38
sg12
g882
sbsbag1
(g2
g3
Ntp889
Rp890
(dp891
g7
g1
(g8
g3
Ntp892
Rp893
(dp894
g12
g13
(S'\x07\xd9\x03\x1d\x00\x00\x00\x00\x00\x00'
p895
tp896
Rp897
sg17
VU
p898
sg19
VBelmont-North Main
p899
sg21
V6049
p900
sbsg23
g1
(g24
g3
Ntp901
Rp902
(dp903
g28
F3.0
sg29
F36.0
sg30
I01
sg31
I01
sg32
F0.0
sg33
F0.58
sg12
g897
sbsbag1
(g2
g3
Ntp904
Rp905
(dp906
g7
g1
(g8
g3
Ntp907
Rp908
(dp909
g12
g13
(S'\x07\xd9\x02\x01\x00\x00\x00\x00\x00\x00'
p910
tp911
Rp912
sg17
VU
p913
sg19
VBelmont-North Main
p914
sg21
V6510
p915
sbsg23
g1
(g24
g3
Ntp916
Rp917
(dp918
g28
F3.0
sg29
F32.0
sg30
I00
sg31
I00
sg32
F0.0
sg33
F0.0
sg12
g912
sbsbag1
(g2
g3
Ntp919
Rp920
(dp921
g7
g1
(g8
g3
Ntp922
Rp923
(dp924
g12
g13
(S'\x07\xd9\x02\x02\x00\x00\x00\x00\x00\x00'
p925
tp926
Rp927
sg17
VW
p928
sg19
VBelmont-North Main
p929
sg21
V11039
p930
sbsg23
g1
(g24
g3
Ntp931
Rp932
(dp933
g28
F3.0
sg29
F19.0
sg30
I00
sg31
I00
sg32
F0.0
sg33
F0.0
sg12
g927
sbsbag1
(g2
g3
Ntp934
Rp935
(dp936
g7
g1
(g8
g3
Ntp937
Rp938
(dp939
g12
g13
(S'\x07\xd9\x02\x03\x00\x00\x00\x00\x00\x00'
p940
tp941
Rp942
sg17
VW
p943
sg19
VBelmont-North Main
p944
sg21
V11262
p945
sbsg23
g1
(g24
g3
Ntp946
Rp947
(dp948
g28
F3.0
sg29
F11.0
sg30
I01
sg31
I00
sg32
F0.0
sg33
F0.0
sg12
g942
sbsbag1
(g2
g3
Ntp949
Rp950
(dp951
g7
g1
(g8
g3
Ntp952
Rp953
(dp954
g12
g13
(S'\x07\xd9\x02\x04\x00\x00\x00\x00\x00\x00'
p955
tp956
Rp957
sg17
VW
p958
sg19
VBelmont-North Main
p959
sg21
V11198
p960
sbsg23
g1
(g24
g3
Ntp961
Rp962
(dp963
g28
F3.0
sg29
F10.0
sg30
I01
sg31
I00
sg32
F0.0
sg33
F0.0
sg12
g957
sbsbag1
(g2
g3
Ntp964
Rp965
(dp966
g7
g1
(g8
g3
Ntp967
Rp968
(dp969
g12
g13
(S'\x07\xd9\x02\x05\x00\x00\x00\x00\x00\x00'
p970
tp971
Rp972
sg17
VW
p973
sg19
VBelmont-North Main
p974
sg21
V11865
p975
sbsg23
g1
(g24
g3
Ntp976
Rp977
(dp978
g28
F3.0
sg29
F16.0
sg30
I00
sg31
I00
sg32
F0.0
sg33
F0.0
sg12
g972
sbsbag1
(g2
g3
Ntp979
Rp980
(dp981
g7
g1
(g8
g3
Ntp982
Rp983
(dp984
g12
g13
(S'\x07\xd9\x02\x06\x00\x00\x00\x00\x00\x00'
p985
tp986
Rp987
sg17
VW
p988
sg19
VBelmont-North Main
p989
sg21
V12690
p990
sbsg23
g1
(g24
g3
Ntp991
Rp992
(dp993
g28
F3.0
sg29
F30.0
sg30
I00
sg31
I00
sg32
F0.0
sg33
F0.0
sg12
g987
sbsbag1
(g2
g3
Ntp994
Rp995
(dp996
g7
g1
(g8
g3
Ntp997
Rp998
(dp999
g12
g13
(S'\x07\xd9\x02\x07\x00\x00\x00\x00\x00\x00'
p1000
tp1001
Rp1002
sg17
VA
p1003
sg19
VBelmont-North Main
p1004
sg21
V10763
p1005
sbsg23
g1
(g24
g3
Ntp1006
Rp1007
(dp1008
g28
I-1
sg29
F49.0
sg30
I00
sg31
I00
sg32
F0.0
sg33
F0.0
sg12
g1002
sbsbag1
(g2
g3
Ntp1009
Rp1010
(dp1011
g7
g1
(g8
g3
Ntp1012
Rp1013
(dp1014
g12
g13
(S'\x07\xd9\x02\x08\x00\x00\x00\x00\x00\x00'
p1015
tp1016
Rp1017
sg17
VU
p1018
sg19
VBelmont-North Main
p1019
sg21
V6525
p1020
sbsg23
g1
(g24
g3
Ntp1021
Rp1022
(dp1023
g28
I-1
sg29
F35.0
sg30
I00
sg31
I00
sg32
F0.0
sg33
F0.0
sg12
g1017
sbsbag1
(g2
g3
Ntp1024
Rp1025
(dp1026
g7
g1
(g8
g3
Ntp1027
Rp1028
(dp1029
g12
g13
(S'\x07\xd9\x02\t\x00\x00\x00\x00\x00\x00'
p1030
tp1031
Rp1032
sg17
VW
p1033
sg19
VBelmont-North Main
p1034
sg21
V11370
p1035
sbsg23
g1
(g24
g3
Ntp1036
Rp1037
(dp1038
g28
I-1
sg29
F40.0
sg30
I00
sg31
I01
sg32
F0.0
sg33
F0.13
sg12
g1032
sbsbag1
(g2
g3
Ntp1039
Rp1040
(dp1041
g7
g1
(g8
g3
Ntp1042
Rp1043
(dp1044
g12
g13
(S'\x07\xd9\x02\n\x00\x00\x00\x00\x00\x00'
p1045
tp1046
Rp1047
sg17
VW
p1048
sg19
VBelmont-North Main
p1049
sg21
V12060
p1050
sbsg23
g1
(g24
g3
Ntp1051
Rp1052
(dp1053
g28
I-1
sg29
F56.0
sg30
I00
sg31
I00
sg32
F0.0
sg33
F0.0
sg12
g1047
sbsbag1
(g2
g3
Ntp1054
Rp1055
(dp1056
g7
g1
(g8
g3
Ntp1057
Rp1058
(dp1059
g12
g13
(S'\x07\xd9\x02\x0b\x00\x00\x00\x00\x00\x00'
p1060
tp1061
Rp1062
sg17
VW
p1063
sg19
VBelmont-North Main
p1064
sg21
V11427
p1065
sbsg23
g1
(g24
g3
Ntp1066
Rp1067
(dp1068
g28
I-1
sg29
F44.0
sg30
I00
sg31
I01
sg32
F0.0
sg33
F0.64
sg12
g1062
sbsbag1
(g2
g3
Ntp1069
Rp1070
(dp1071
g7
g1
(g8
g3
Ntp1072
Rp1073
(dp1074
g12
g13
(S'\x07\xd9\x02\x0c\x00\x00\x00\x00\x00\x00'
p1075
tp1076
Rp1077
sg17
VW
p1078
sg19
VBelmont-North Main
p1079
sg21
V12063
p1080
sbsg23
g1
(g24
g3
Ntp1081
Rp1082
(dp1083
g28
I-1
sg29
F34.0
sg30
I00
sg31
I00
sg32
F0.0
sg33
F0.0
sg12
g1077
sbsbag1
(g2
g3
Ntp1084
Rp1085
(dp1086
g7
g1
(g8
g3
Ntp1087
Rp1088
(dp1089
g12
g13
(S'\x07\xd9\x02\r\x00\x00\x00\x00\x00\x00'
p1090
tp1091
Rp1092
sg17
VW
p1093
sg19
VBelmont-North Main
p1094
sg21
V12876
p1095
sbsg23
g1
(g24
g3
Ntp1096
Rp1097
(dp1098
g28
I-1
sg29
F30.0
sg30
I01
sg31
I00
sg32
F0.0
sg33
F0.0
sg12
g1092
sbsbag1
(g2
g3
Ntp1099
Rp1100
(dp1101
g7
g1
(g8
g3
Ntp1102
Rp1103
(dp1104
g12
g13
(S'\x07\xd9\x02\x0e\x00\x00\x00\x00\x00\x00'
p1105
tp1106
Rp1107
sg17
VA
p1108
sg19
VBelmont-North Main
p1109
sg21
V10241
p1110
sbsg23
g1
(g24
g3
Ntp1111
Rp1112
(dp1113
g28
I-1
sg29
F28.0
sg30
I01
sg31
I00
sg32
F0.0
sg33
F0.01
sg12
g1107
sbsbag1
(g2
g3
Ntp1114
Rp1115
(dp1116
g7
g1
(g8
g3
Ntp1117
Rp1118
(dp1119
g12
g13
(S'\x07\xd9\x02\x0f\x00\x00\x00\x00\x00\x00'
p1120
tp1121
Rp1122
sg17
VU
p1123
sg19
VBelmont-North Main
p1124
sg21
V7087
p1125
sbsg23
g1
(g24
g3
Ntp1126
Rp1127
(dp1128
g28
I-1
sg29
F24.0
sg30
I01
sg31
I00
sg32
F0.0
sg33
F0.0
sg12
g1122
sbsbag1
(g2
g3
Ntp1129
Rp1130
(dp1131
g7
g1
(g8
g3
Ntp1132
Rp1133
(dp1134
g12
g13
(S'\x07\xd9\x02\x10\x00\x00\x00\x00\x00\x00'
p1135
tp1136
Rp1137
sg17
VW
p1138
sg19
VBelmont-North Main
p1139
sg21
V9505
p1140
sbsg23
g1
(g24
g3
Ntp1141
Rp1142
(dp1143
g28
I-1
sg29
F26.0
sg30
I00
sg31
I00
sg32
F0.0
sg33
F0.0
sg12
g1137
sbsbag1
(g2
g3
Ntp1144
Rp1145
(dp1146
g7
g1
(g8
g3
Ntp1147
Rp1148
(dp1149
g12
g13
(S'\x07\xd9\x02\x11\x00\x00\x00\x00\x00\x00'
p1150
tp1151
Rp1152
sg17
VW
p1153
sg19
VBelmont-North Main
p1154
sg21
V11546
p1155
sbsg23
g1
(g24
g3
Ntp1156
Rp1157
(dp1158
g28
I-1
sg29
F34.0
sg30
I01
sg31
I00
sg32
F0.0
sg33
F0.01
sg12
g1152
sbsbag1
(g2
g3
Ntp1159
Rp1160
(dp1161
g7
g1
(g8
g3
Ntp1162
Rp1163
(dp1164
g12
g13
(S'\x07\xd9\x02\x12\x00\x00\x00\x00\x00\x00'
p1165
tp1166
Rp1167
sg17
VW
p1168
sg19
VBelmont-North Main
p1169
sg21
V11358
p1170
sbsg23
g1
(g24
g3
Ntp1171
Rp1172
(dp1173
g28
I-1
sg29
F30.0
sg30
I01
sg31
I01
sg32
F0.0
sg33
F0.38
sg12
g1167
sbsbag1
(g2
g3
Ntp1174
Rp1175
(dp1176
g7
g1
(g8
g3
Ntp1177
Rp1178
(dp1179
g12
g13
(S'\x07\xd9\x02\x13\x00\x00\x00\x00\x00\x00'
p1180
tp1181
Rp1182
sg17
VW
p1183
sg19
VBelmont-North Main
p1184
sg21
V11534
p1185
sbsg23
g1
(g24
g3
Ntp1186
Rp1187
(dp1188
g28
I-1
sg29
F16.0
sg30
I00
sg31
I00
sg32
F0.0
sg33
F0.0
sg12
g1182
sbsbag1
(g2
g3
Ntp1189
Rp1190
(dp1191
g7
g1
(g8
g3
Ntp1192
Rp1193
(dp1194
g12
g13
(S'\x07\xd9\x02\x14\x00\x00\x00\x00\x00\x00'
p1195
tp1196
Rp1197
sg17
VW
p1198
sg19
VBelmont-North Main
p1199
sg21
V12277
p1200
sbsg23
g1
(g24
g3
Ntp1201
Rp1202
(dp1203
g28
I-1
sg29
F20.0
sg30
I00
sg31
I00
sg32
F0.0
sg33
F0.0
sg12
g1197
sbsbag1
(g2
g3
Ntp1204
Rp1205
(dp1206
g7
g1
(g8
g3
Ntp1207
Rp1208
(dp1209
g12
g13
(S'\x07\xd9\x02\x15\x00\x00\x00\x00\x00\x00'
p1210
tp1211
Rp1212
sg17
VA
p1213
sg19
VBelmont-North Main
p1214
sg21
V8737
p1215
sbsg23
g1
(g24
g3
Ntp1216
Rp1217
(dp1218
g28
F3.0
sg29
F24.0
sg30
I01
sg31
I00
sg32
F0.0
sg33
F0.11
sg12
g1212
sbsbag1
(g2
g3
Ntp1219
Rp1220
(dp1221
g7
g1
(g8
g3
Ntp1222
Rp1223
(dp1224
g12
g13
(S'\x07\xd9\x02\x16\x00\x00\x00\x00\x00\x00'
p1225
tp1226
Rp1227
sg17
VU
p1228
sg19
VBelmont-North Main
p1229
sg21
V6206
p1230
sbsg23
g1
(g24
g3
Ntp1231
Rp1232
(dp1233
g28
F2.0
sg29
F20.0
sg30
I01
sg31
I00
sg32
F0.0
sg33
F0.0
sg12
g1227
sbsbag1
(g2
g3
Ntp1234
Rp1235
(dp1236
g7
g1
(g8
g3
Ntp1237
Rp1238
(dp1239
g12
g13
(S'\x07\xd9\x02\x17\x00\x00\x00\x00\x00\x00'
p1240
tp1241
Rp1242
sg17
VW
p1243
sg19
VBelmont-North Main
p1244
sg21
V10996
p1245
sbsg23
g1
(g24
g3
Ntp1246
Rp1247
(dp1248
g28
F2.0
sg29
F18.0
sg30
I00
sg31
I00
sg32
F0.0
sg33
F0.0
sg12
g1242
sbsbag1
(g2
g3
Ntp1249
Rp1250
(dp1251
g7
g1
(g8
g3
Ntp1252
Rp1253
(dp1254
g12
g13
(S'\x07\xd9\x02\x18\x00\x00\x00\x00\x00\x00'
p1255
tp1256
Rp1257
sg17
VW
p1258
sg19
VBelmont-North Main
p1259
sg21
V11781
p1260
sbsg23
g1
(g24
g3
Ntp1261
Rp1262
(dp1263
g28
F2.0
sg29
F30.0
sg30
I00
sg31
I00
sg32
F0.0
sg33
F0.0
sg12
g1257
sbsbag1
(g2
g3
Ntp1264
Rp1265
(dp1266
g7
g1
(g8
g3
Ntp1267
Rp1268
(dp1269
g12
g13
(S'\x07\xd9\x02\x19\x00\x00\x00\x00\x00\x00'
p1270
tp1271
Rp1272
sg17
VW
p1273
sg19
VBelmont-North Main
p1274
sg21
V11773
p1275
sbsg23
g1
(g24
g3
Ntp1276
Rp1277
(dp1278
g28
F1.0
sg29
F45.0
sg30
I00
sg31
I00
sg32
F0.0
sg33
F0.0
sg12
g1272
sbsbag1
(g2
g3
Ntp1279
Rp1280
(dp1281
g7
g1
(g8
g3
Ntp1282
Rp1283
(dp1284
g12
g13
(S'\x07\xd9\x02\x1a\x00\x00\x00\x00\x00\x00'
p1285
tp1286
Rp1287
sg17
VW
p1288
sg19
VBelmont-North Main
p1289
sg21
V11279
p1290
sbsg23
g1
(g24
g3
Ntp1291
Rp1292
(dp1293
g28
I-1
sg29
F44.0
sg30
I00
sg31
I01
sg32
F0.0
sg33
F1.66
sg12
g1287
sbsbag1
(g2
g3
Ntp1294
Rp1295
(dp1296
g7
g1
(g8
g3
Ntp1297
Rp1298
(dp1299
g12
g13
(S'\x07\xd9\x02\x1b\x00\x00\x00\x00\x00\x00'
p1300
tp1301
Rp1302
sg17
VW
p1303
sg19
VBelmont-North Main
p1304
sg21
V12346
p1305
sbsg23
g1
(g24
g3
Ntp1306
Rp1307
(dp1308
g28
I-1
sg29
F36.0
sg30
I01
sg31
I01
sg32
F0.0
sg33
F0.06
sg12
g1302
sbsbag1
(g2
g3
Ntp1309
Rp1310
(dp1311
g7
g1
(g8
g3
Ntp1312
Rp1313
(dp1314
g12
g13
(S'\x07\xda\x01\x02\x00\x00\x00\x00\x00\x00'
p1315
tp1316
Rp1317
sg17
VA
p1318
sg19
VBelmont-North Main
p1319
sg21
V6094
p1320
sbsg23
g1
(g24
g3
Ntp1321
Rp1322
(dp1323
g28
F2.0
sg29
F8.0
sg30
I01
sg31
I00
sg32
F0.0
sg33
F0.0
sg12
g1317
sbsbag1
(g2
g3
Ntp1324
Rp1325
(dp1326
g7
g1
(g8
g3
Ntp1327
Rp1328
(dp1329
g12
g13
(S'\x07\xd9\x06\x01\x00\x00\x00\x00\x00\x00'
p1330
tp1331
Rp1332
sg17
VW
p1333
sg19
VBelmont-North Main
p1334
sg21
V11131
p1335
sbsg23
g1
(g24
g3
Ntp1336
Rp1337
(dp1338
g28
I-1
sg29
F66.0
sg30
I00
sg31
I01
sg32
F0.0
sg33
F0.83
sg12
g1332
sbsbag1
(g2
g3
Ntp1339
Rp1340
(dp1341
g7
g1
(g8
g3
Ntp1342
Rp1343
(dp1344
g12
g13
(S'\x07\xd9\x06\x02\x00\x00\x00\x00\x00\x00'
p1345
tp1346
Rp1347
sg17
VW
p1348
sg19
VBelmont-North Main
p1349
sg21
V11542
p1350
sbsg23
g1
(g24
g3
Ntp1351
Rp1352
(dp1353
g28
I-1
sg29
F56.0
sg30
I00
sg31
I01
sg32
F0.0
sg33
F0.06
sg12
g1347
sbsbag1
(g2
g3
Ntp1354
Rp1355
(dp1356
g7
g1
(g8
g3
Ntp1357
Rp1358
(dp1359
g12
g13
(S'\x07\xd9\x06\x03\x00\x00\x00\x00\x00\x00'
p1360
tp1361
Rp1362
sg17
VW
p1363
sg19
VBelmont-North Main
p1364
sg21
V12148
p1365
sbsg23
g1
(g24
g3
Ntp1366
Rp1367
(dp1368
g28
I-1
sg29
F55.0
sg30
I00
sg31
I00
sg32
F0.0
sg33
F0.0
sg12
g1362
sbsbag1
(g2
g3
Ntp1369
Rp1370
(dp1371
g7
g1
(g8
g3
Ntp1372
Rp1373
(dp1374
g12
g13
(S'\x07\xd9\x06\x04\x00\x00\x00\x00\x00\x00'
p1375
tp1376
Rp1377
sg17
VW
p1378
sg19
VBelmont-North Main
p1379
sg21
V12014
p1380
sbsg23
g1
(g24
g3
Ntp1381
Rp1382
(dp1383
g28
I-1
sg29
F57.0
sg30
I00
sg31
I00
sg32
F0.0
sg33
F0.0
sg12
g1377
sbsbag1
(g2
g3
Ntp1384
Rp1385
(dp1386
g7
g1
(g8
g3
Ntp1387
Rp1388
(dp1389
g12
g13
(S'\x07\xd9\x06\x05\x00\x00\x00\x00\x00\x00'
p1390
tp1391
Rp1392
sg17
VW
p1393
sg19
VBelmont-North Main
p1394
sg21
V12468
p1395
sbsg23
g1
(g24
g3
Ntp1396
Rp1397
(dp1398
g28
I-1
sg29
F64.0
sg30
I00
sg31
I00
sg32
F0.0
sg33
F0.0
sg12
g1392
sbsbag1
(g2
g3
Ntp1399
Rp1400
(dp1401
g7
g1
(g8
g3
Ntp1402
Rp1403
(dp1404
g12
g13
(S'\x07\xd9\x06\x06\x00\x00\x00\x00\x00\x00'
p1405
tp1406
Rp1407
sg17
VA
p1408
sg19
VBelmont-North Main
p1409
sg21
V9893
p1410
sbsg23
g1
(g24
g3
Ntp1411
Rp1412
(dp1413
g28
I-1
sg29
F60.0
sg30
I00
sg31
I01
sg32
F0.0
sg33
F0.0
sg12
g1407
sbsbag1
(g2
g3
Ntp1414
Rp1415
(dp1416
g7
g1
(g8
g3
Ntp1417
Rp1418
(dp1419
g12
g13
(S'\x07\xd9\x06\x07\x00\x00\x00\x00\x00\x00'
p1420
tp1421
Rp1422
sg17
VU
p1423
sg19
VBelmont-North Main
p1424
sg21
V6983
p1425
sbsg23
g1
(g24
g3
Ntp1426
Rp1427
(dp1428
g28
I-1
sg29
F64.0
sg30
I00
sg31
I01
sg32
F0.0
sg33
F0.0
sg12
g1422
sbsbag1
(g2
g3
Ntp1429
Rp1430
(dp1431
g7
g1
(g8
g3
Ntp1432
Rp1433
(dp1434
g12
g13
(S'\x07\xd9\x06\x08\x00\x00\x00\x00\x00\x00'
p1435
tp1436
Rp1437
sg17
VW
p1438
sg19
VBelmont-North Main
p1439
sg21
V11498
p1440
sbsg23
g1
(g24
g3
Ntp1441
Rp1442
(dp1443
g28
I-1
sg29
F68.0
sg30
I00
sg31
I01
sg32
F0.0
sg33
F0.3
sg12
g1437
sbsbag1
(g2
g3
Ntp1444
Rp1445
(dp1446
g7
g1
(g8
g3
Ntp1447
Rp1448
(dp1449
g12
g13
(S'\x07\xd9\x06\t\x00\x00\x00\x00\x00\x00'
p1450
tp1451
Rp1452
sg17
VW
p1453
sg19
VBelmont-North Main
p1454
sg21
V11768
p1455
sbsg23
g1
(g24
g3
Ntp1456
Rp1457
(dp1458
g28
I-1
sg29
F62.0
sg30
I00
sg31
I00
sg32
F0.0
sg33
F0.0
sg12
g1452
sbsbag1
(g2
g3
Ntp1459
Rp1460
(dp1461
g7
g1
(g8
g3
Ntp1462
Rp1463
(dp1464
g12
g13
(S'\x07\xd9\x06\n\x00\x00\x00\x00\x00\x00'
p1465
tp1466
Rp1467
sg17
VW
p1468
sg19
VBelmont-North Main
p1469
sg21
V12247
p1470
sbsg23
g1
(g24
g3
Ntp1471
Rp1472
(dp1473
g28
I-1
sg29
F60.0
sg30
I00
sg31
I01
sg32
F0.0
sg33
F0.04
sg12
g1467
sbsbag1
(g2
g3
Ntp1474
Rp1475
(dp1476
g7
g1
(g8
g3
Ntp1477
Rp1478
(dp1479
g12
g13
(S'\x07\xd9\x06\x0b\x00\x00\x00\x00\x00\x00'
p1480
tp1481
Rp1482
sg17
VW
p1483
sg19
VBelmont-North Main
p1484
sg21
V11967
p1485
sbsg23
g1
(g24
g3
Ntp1486
Rp1487
(dp1488
g28
I-1
sg29
F56.0
sg30
I00
sg31
I01
sg32
F0.0
sg33
F0.98
sg12
g1482
sbsbag1
(g2
g3
Ntp1489
Rp1490
(dp1491
g7
g1
(g8
g3
Ntp1492
Rp1493
(dp1494
g12
g13
(S'\x07\xd9\x06\x0c\x00\x00\x00\x00\x00\x00'
p1495
tp1496
Rp1497
sg17
VW
p1498
sg19
VBelmont-North Main
p1499
sg21
V14554
p1500
sbsg23
g1
(g24
g3
Ntp1501
Rp1502
(dp1503
g28
I-1
sg29
F60.0
sg30
I00
sg31
I00
sg32
F0.0
sg33
F0.0
sg12
g1497
sbsbag1
(g2
g3
Ntp1504
Rp1505
(dp1506
g7
g1
(g8
g3
Ntp1507
Rp1508
(dp1509
g12
g13
(S'\x07\xd9\x06\r\x00\x00\x00\x00\x00\x00'
p1510
tp1511
Rp1512
sg17
VA
p1513
sg19
VBelmont-North Main
p1514
sg21
V12170
p1515
sbsg23
g1
(g24
g3
Ntp1516
Rp1517
(dp1518
g28
I-1
sg29
F60.0
sg30
I00
sg31
I01
sg32
F0.0
sg33
F0.31
sg12
g1512
sbsbag1
(g2
g3
Ntp1519
Rp1520
(dp1521
g7
g1
(g8
g3
Ntp1522
Rp1523
(dp1524
g12
g13
(S'\x07\xd9\x06\x0e\x00\x00\x00\x00\x00\x00'
p1525
tp1526
Rp1527
sg17
VU
p1528
sg19
VBelmont-North Main
p1529
sg21
V9571
p1530
sbsg23
g1
(g24
g3
Ntp1531
Rp1532
(dp1533
g28
I-1
sg29
F64.0
sg30
I00
sg31
I00
sg32
F0.0
sg33
F0.0
sg12
g1527
sbsbag1
(g2
g3
Ntp1534
Rp1535
(dp1536
g7
g1
(g8
g3
Ntp1537
Rp1538
(dp1539
g12
g13
(S'\x07\xd9\x06\x0f\x00\x00\x00\x00\x00\x00'
p1540
tp1541
Rp1542
sg17
VW
p1543
sg19
VBelmont-North Main
p1544
sg21
V11450
p1545
sbsg23
g1
(g24
g3
Ntp1546
Rp1547
(dp1548
g28
I-1
sg29
F70.0
sg30
I00
sg31
I00
sg32
F0.0
sg33
F0.0
sg12
g1542
sbsbag1
(g2
g3
Ntp1549
Rp1550
(dp1551
g7
g1
(g8
g3
Ntp1552
Rp1553
(dp1554
g12
g13
(S'\x07\xd9\x06\x10\x00\x00\x00\x00\x00\x00'
p1555
tp1556
Rp1557
sg17
VW
p1558
sg19
VBelmont-North Main
p1559
sg21
V11934
p1560
sbsg23
g1
(g24
g3
Ntp1561
Rp1562
(dp1563
g28
I-1
sg29
F68.0
sg30
I00
sg31
I01
sg32
F0.0
sg33
F1.07
sg12
g1557
sbsbag1
(g2
g3
Ntp1564
Rp1565
(dp1566
g7
g1
(g8
g3
Ntp1567
Rp1568
(dp1569
g12
g13
(S'\x07\xd9\x06\x11\x00\x00\x00\x00\x00\x00'
p1570
tp1571
Rp1572
sg17
VW
p1573
sg19
VBelmont-North Main
p1574
sg21
V13100
p1575
sbsg23
g1
(g24
g3
Ntp1576
Rp1577
(dp1578
g28
I-1
sg29
F68.0
sg30
I00
sg31
I00
sg32
F0.0
sg33
F0.0
sg12
g1572
sbsbag1
(g2
g3
Ntp1579
Rp1580
(dp1581
g7
g1
(g8
g3
Ntp1582
Rp1583
(dp1584
g12
g13
(S'\x07\xd9\x06\x12\x00\x00\x00\x00\x00\x00'
p1585
tp1586
Rp1587
sg17
VW
p1588
sg19
VBelmont-North Main
p1589
sg21
V13179
p1590
sbsg23
g1
(g24
g3
Ntp1591
Rp1592
(dp1593
g28
I-1
sg29
F71.0
sg30
I00
sg31
I01
sg32
F0.0
sg33
F0.11
sg12
g1587
sbsbag1
(g2
g3
Ntp1594
Rp1595
(dp1596
g7
g1
(g8
g3
Ntp1597
Rp1598
(dp1599
g12
g13
(S'\x07\xd9\x06\x13\x00\x00\x00\x00\x00\x00'
p1600
tp1601
Rp1602
sg17
VW
p1603
sg19
VBelmont-North Main
p1604
sg21
V12249
p1605
sbsg23
g1
(g24
g3
Ntp1606
Rp1607
(dp1608
g28
I-1
sg29
F76.0
sg30
I00
sg31
I01
sg32
F0.0
sg33
F0.87
sg12
g1602
sbsbag1
(g2
g3
Ntp1609
Rp1610
(dp1611
g7
g1
(g8
g3
Ntp1612
Rp1613
(dp1614
g12
g13
(S'\x07\xd9\x06\x14\x00\x00\x00\x00\x00\x00'
p1615
tp1616
Rp1617
sg17
VA
p1618
sg19
VBelmont-North Main
p1619
sg21
V10944
p1620
sbsg23
g1
(g24
g3
Ntp1621
Rp1622
(dp1623
g28
I-1
sg29
F78.0
sg30
I00
sg31
I00
sg32
F0.0
sg33
F0.0
sg12
g1617
sbsbag1
(g2
g3
Ntp1624
Rp1625
(dp1626
g7
g1
(g8
g3
Ntp1627
Rp1628
(dp1629
g12
g13
(S'\x07\xd9\x06\x15\x00\x00\x00\x00\x00\x00'
p1630
tp1631
Rp1632
sg17
VU
p1633
sg19
VBelmont-North Main
p1634
sg21
V7972
p1635
sbsg23
g1
(g24
g3
Ntp1636
Rp1637
(dp1638
g28
I-1
sg29
F78.0
sg30
I00
sg31
I01
sg32
F0.0
sg33
F0.0
sg12
g1632
sbsbag1
(g2
g3
Ntp1639
Rp1640
(dp1641
g7
g1
(g8
g3
Ntp1642
Rp1643
(dp1644
g12
g13
(S'\x07\xd9\x06\x16\x00\x00\x00\x00\x00\x00'
p1645
tp1646
Rp1647
sg17
VW
p1648
sg19
VBelmont-North Main
p1649
sg21
V11119
p1650
sbsg23
g1
(g24
g3
Ntp1651
Rp1652
(dp1653
g28
I-1
sg29
F80.0
sg30
I00
sg31
I01
sg32
F0.0
sg33
F0.06
sg12
g1647
sbsbag1
(g2
g3
Ntp1654
Rp1655
(dp1656
g7
g1
(g8
g3
Ntp1657
Rp1658
(dp1659
g12
g13
(S'\x07\xd9\x06\x17\x00\x00\x00\x00\x00\x00'
p1660
tp1661
Rp1662
sg17
VW
p1663
sg19
VBelmont-North Main
p1664
sg21
V11686
p1665
sbsg23
g1
(g24
g3
Ntp1666
Rp1667
(dp1668
g28
I-1
sg29
F83.0
sg30
I00
sg31
I00
sg32
F0.0
sg33
F0.0
sg12
g1662
sbsbag1
(g2
g3
Ntp1669
Rp1670
(dp1671
g7
g1
(g8
g3
Ntp1672
Rp1673
(dp1674
g12
g13
(S'\x07\xd9\x06\x18\x00\x00\x00\x00\x00\x00'
p1675
tp1676
Rp1677
sg17
VW
p1678
sg19
VBelmont-North Main
p1679
sg21
V11442
p1680
sbsg23
g1
(g24
g3
Ntp1681
Rp1682
(dp1683
g28
I-1
sg29
F83.0
sg30
I00
sg31
I01
sg32
F0.0
sg33
F0.78
sg12
g1677
sbsbag1
(g2
g3
Ntp1684
Rp1685
(dp1686
g7
g1
(g8
g3
Ntp1687
Rp1688
(dp1689
g12
g13
(S'\x07\xd9\x06\x19\x00\x00\x00\x00\x00\x00'
p1690
tp1691
Rp1692
sg17
VW
p1693
sg19
VBelmont-North Main
p1694
sg21
V11935
p1695
sbsg23
g1
(g24
g3
Ntp1696
Rp1697
(dp1698
g28
I-1
sg29
F85.0
sg30
I00
sg31
I00
sg32
F0.0
sg33
F0.0
sg12
g1692
sbsbag1
(g2
g3
Ntp1699
Rp1700
(dp1701
g7
g1
(g8
g3
Ntp1702
Rp1703
(dp1704
g12
g13
(S'\x07\xd9\x06\x1a\x00\x00\x00\x00\x00\x00'
p1705
tp1706
Rp1707
sg17
VW
p1708
sg19
VBelmont-North Main
p1709
sg21
V12732
p1710
sbsg23
g1
(g24
g3
Ntp1711
Rp1712
(dp1713
g28
I-1
sg29
F80.0
sg30
I00
sg31
I00
sg32
F0.0
sg33
F0.0
sg12
g1707
sbsbag1
(g2
g3
Ntp1714
Rp1715
(dp1716
g7
g1
(g8
g3
Ntp1717
Rp1718
(dp1719
g12
g13
(S'\x07\xd9\x06\x1b\x00\x00\x00\x00\x00\x00'
p1720
tp1721
Rp1722
sg17
VA
p1723
sg19
VBelmont-North Main
p1724
sg21
V12398
p1725
sbsg23
g1
(g24
g3
Ntp1726
Rp1727
(dp1728
g28
I-1
sg29
F79.0
sg30
I00
sg31
I01
sg32
F0.0
sg33
F0.05
sg12
g1722
sbsbag1
(g2
g3
Ntp1729
Rp1730
(dp1731
g7
g1
(g8
g3
Ntp1732
Rp1733
(dp1734
g12
g13
(S'\x07\xd9\x06\x1c\x00\x00\x00\x00\x00\x00'
p1735
tp1736
Rp1737
sg17
VU
p1738
sg19
VBelmont-North Main
p1739
sg21
V29457
p1740
sbsg23
g1
(g24
g3
Ntp1741
Rp1742
(dp1743
g28
I-1
sg29
F76.0
sg30
I00
sg31
I00
sg32
F0.0
sg33
F0.0
sg12
g1737
sbsbag1
(g2
g3
Ntp1744
Rp1745
(dp1746
g7
g1
(g8
g3
Ntp1747
Rp1748
(dp1749
g12
g13
(S'\x07\xd9\x06\x1d\x00\x00\x00\x00\x00\x00'
p1750
tp1751
Rp1752
sg17
VW
p1753
sg19
VBelmont-North Main
p1754
sg21
V12587
p1755
sbsg23
g1
(g24
g3
Ntp1756
Rp1757
(dp1758
g28
I-1
sg29
F72.0
sg30
I00
sg31
I00
sg32
F0.0
sg33
F0.0
sg12
g1752
sbsbag1
(g2
g3
Ntp1759
Rp1760
(dp1761
g7
g1
(g8
g3
Ntp1762
Rp1763
(dp1764
g12
g13
(S'\x07\xda\x01\x02\x00\x00\x00\x00\x00\x00'
p1765
tp1766
Rp1767
sg17
VA
p1768
sg19
VBelmont-North Main
p1769
sg21
V6094
p1770
sbsg23
g1
(g24
g3
Ntp1771
Rp1772
(dp1773
g28
F2.0
sg29
F8.0
sg30
I01
sg31
I00
sg32
F0.0
sg33
F0.0
sg12
g1767
sbsbag1
(g2
g3
Ntp1774
Rp1775
(dp1776
g7
g1
(g8
g3
Ntp1777
Rp1778
(dp1779
g12
g13
(S'\x07\xda\x01\x01\x00\x00\x00\x00\x00\x00'
p1780
tp1781
Rp1782
sg17
VU
p1783
sg19
VBelmont-North Main
p1784
sg21
V5650
p1785
sbsg23
g1
(g24
g3
Ntp1786
Rp1787
(dp1788
g28
F2.0
sg29
F12.0
sg30
I01
sg31
I00
sg32
F0.0
sg33
F0.0
sg12
g1782
sbsbag1
(g2
g3
Ntp1789
Rp1790
(dp1791
g7
g1
(g8
g3
Ntp1792
Rp1793
(dp1794
g12
g13
(S'\x07\xda\x01\x02\x00\x00\x00\x00\x00\x00'
p1795
tp1796
Rp1797
sg17
VA
p1798
sg19
VBelmont-North Main
p1799
sg21
V6094
p1800
sbsg23
g1
(g24
g3
Ntp1801
Rp1802
(dp1803
g28
F2.0
sg29
F8.0
sg30
I01
sg31
I00
sg32
F0.0
sg33
F0.0
sg12
g1797
sbsbag1
(g2
g3
Ntp1804
Rp1805
(dp1806
g7
g1
(g8
g3
Ntp1807
Rp1808
(dp1809
g12
g13
(S'\x07\xda\x01\x03\x00\x00\x00\x00\x00\x00'
p1810
tp1811
Rp1812
sg17
VU
p1813
sg19
VBelmont-North Main
p1814
sg21
V4495
p1815
sbsg23
g1
(g24
g3
Ntp1816
Rp1817
(dp1818
g28
F2.0
sg29
F10.0
sg30
I01
sg31
I00
sg32
F0.0
sg33
F0.0
sg12
g1812
sbsbag1
(g2
g3
Ntp1819
Rp1820
(dp1821
g7
g1
(g8
g3
Ntp1822
Rp1823
(dp1824
g12
g13
(S'\x07\xda\x01\x04\x00\x00\x00\x00\x00\x00'
p1825
tp1826
Rp1827
sg17
VW
p1828
sg19
VBelmont-North Main
p1829
sg21
V9121
p1830
sbsg23
g1
(g24
g3
Ntp1831
Rp1832
(dp1833
g28
F2.0
sg29
F14.0
sg30
I01
sg31
I00
sg32
F0.0
sg33
F0.0
sg12
g1827
sbsbag1
(g2
g3
Ntp1834
Rp1835
(dp1836
g7
g1
(g8
g3
Ntp1837
Rp1838
(dp1839
g12
g13
(S'\x07\xda\x01\x05\x00\x00\x00\x00\x00\x00'
p1840
tp1841
Rp1842
sg17
VW
p1843
sg19
VBelmont-North Main
p1844
sg21
V9815
p1845
sbsg23
g1
(g24
g3
Ntp1846
Rp1847
(dp1848
g28
F2.0
sg29
F19.0
sg30
I01
sg31
I00
sg32
F0.0
sg33
F0.0
sg12
g1842
sbsbag1
(g2
g3
Ntp1849
Rp1850
(dp1851
g7
g1
(g8
g3
Ntp1852
Rp1853
(dp1854
g12
g13
(S'\x07\xda\x01\x06\x00\x00\x00\x00\x00\x00'
p1855
tp1856
Rp1857
sg17
VW
p1858
sg19
VBelmont-North Main
p1859
sg21
V9893
p1860
sbsg23
g1
(g24
g3
Ntp1861
Rp1862
(dp1863
g28
F2.0
sg29
F16.0
sg30
I00
sg31
I00
sg32
F0.0
sg33
F0.0
sg12
g1857
sbsbag1
(g2
g3
Ntp1864
Rp1865
(dp1866
g7
g1
(g8
g3
Ntp1867
Rp1868
(dp1869
g12
g13
(S'\x07\xda\x01\x07\x00\x00\x00\x00\x00\x00'
p1870
tp1871
Rp1872
sg17
VW
p1873
sg19
VBelmont-North Main
p1874
sg21
V10355
p1875
sbsg23
g1
(g24
g3
Ntp1876
Rp1877
(dp1878
g28
F5.0
sg29
F18.0
sg30
I01
sg31
I00
sg32
F0.0
sg33
F0.2
sg12
g1872
sbsbag1
(g2
g3
Ntp1879
Rp1880
(dp1881
g7
g1
(g8
g3
Ntp1882
Rp1883
(dp1884
g12
g13
(S'\x07\xda\x01\x08\x00\x00\x00\x00\x00\x00'
p1885
tp1886
Rp1887
sg17
VW
p1888
sg19
VBelmont-North Main
p1889
sg21
V10594
p1890
sbsg23
g1
(g24
g3
Ntp1891
Rp1892
(dp1893
g28
F6.0
sg29
F22.0
sg30
I01
sg31
I00
sg32
F0.0
sg33
F0.02
sg12
g1887
sbsbag1
(g2
g3
Ntp1894
Rp1895
(dp1896
g7
g1
(g8
g3
Ntp1897
Rp1898
(dp1899
g12
g13
(S'\x07\xda\x01\t\x00\x00\x00\x00\x00\x00'
p1900
tp1901
Rp1902
sg17
VA
p1903
sg19
VBelmont-North Main
p1904
sg21
V7795
p1905
sbsg23
g1
(g24
g3
Ntp1906
Rp1907
(dp1908
g28
F5.0
sg29
F16.0
sg30
I01
sg31
I00
sg32
F0.0
sg33
F0.0
sg12
g1902
sbsbag1
(g2
g3
Ntp1909
Rp1910
(dp1911
g7
g1
(g8
g3
Ntp1912
Rp1913
(dp1914
g12
g13
(S'\x07\xda\x01\n\x00\x00\x00\x00\x00\x00'
p1915
tp1916
Rp1917
sg17
VU
p1918
sg19
VBelmont-North Main
p1919
sg21
V5586
p1920
sbsg23
g1
(g24
g3
Ntp1921
Rp1922
(dp1923
g28
F5.0
sg29
F9.0
sg30
I00
sg31
I00
sg32
F0.0
sg33
F0.0
sg12
g1917
sbsbag1
(g2
g3
Ntp1924
Rp1925
(dp1926
g7
g1
(g8
g3
Ntp1927
Rp1928
(dp1929
g12
g13
(S'\x07\xda\x01\x0b\x00\x00\x00\x00\x00\x00'
p1930
tp1931
Rp1932
sg17
VW
p1933
sg19
VBelmont-North Main
p1934
sg21
V9610
p1935
sbsg23
g1
(g24
g3
Ntp1936
Rp1937
(dp1938
g28
F4.0
sg29
F22.0
sg30
I01
sg31
I00
sg32
F0.0
sg33
F0.0
sg12
g1932
sbsbag1
(g2
g3
Ntp1939
Rp1940
(dp1941
g7
g1
(g8
g3
Ntp1942
Rp1943
(dp1944
g12
g13
(S'\x07\xda\x01\x0c\x00\x00\x00\x00\x00\x00'
p1945
tp1946
Rp1947
sg17
VW
p1948
sg19
VBelmont-North Main
p1949
sg21
V10087
p1950
sbsg23
g1
(g24
g3
Ntp1951
Rp1952
(dp1953
g28
F4.0
sg29
F26.0
sg30
I01
sg31
I00
sg32
F0.0
sg33
F0.0
sg12
g1947
sbsbag1
(g2
g3
Ntp1954
Rp1955
(dp1956
g7
g1
(g8
g3
Ntp1957
Rp1958
(dp1959
g12
g13
(S'\x07\xda\x01\r\x00\x00\x00\x00\x00\x00'
p1960
tp1961
Rp1962
sg17
VW
p1963
sg19
VBelmont-North Main
p1964
sg21
V10350
p1965
sbsg23
g1
(g24
g3
Ntp1966
Rp1967
(dp1968
g28
F4.0
sg29
F26.0
sg30
I00
sg31
I00
sg32
F0.0
sg33
F0.0
sg12
g1962
sbsbag1
(g2
g3
Ntp1969
Rp1970
(dp1971
g7
g1
(g8
g3
Ntp1972
Rp1973
(dp1974
g12
g13
(S'\x07\xda\x01\x0e\x00\x00\x00\x00\x00\x00'
p1975
tp1976
Rp1977
sg17
VW
p1978
sg19
VBelmont-North Main
p1979
sg21
V10632
p1980
sbsg23
g1
(g24
g3
Ntp1981
Rp1982
(dp1983
g28
F3.0
sg29
F34.0
sg30
I00
sg31
I00
sg32
F0.0
sg33
F0.0
sg12
g1977
sbsbag1
(g2
g3
Ntp1984
Rp1985
(dp1986
g7
g1
(g8
g3
Ntp1987
Rp1988
(dp1989
g12
g13
(S'\x07\xda\x01\x0f\x00\x00\x00\x00\x00\x00'
p1990
tp1991
Rp1992
sg17
VW
p1993
sg19
VBelmont-North Main
p1994
sg21
V10893
p1995
sbsg23
g1
(g24
g3
Ntp1996
Rp1997
(dp1998
g28
F1.0
sg29
F30.0
sg30
I00
sg31
I00
sg32
F0.0
sg33
F0.0
sg12
g1992
sbsbag1
(g2
g3
Ntp1999
Rp2000
(dp2001
g7
g1
(g8
g3
Ntp2002
Rp2003
(dp2004
g12
g13
(S'\x07\xda\x01\x10\x00\x00\x00\x00\x00\x00'
p2005
tp2006
Rp2007
sg17
VA
p2008
sg19
VBelmont-North Main
p2009
sg21
V8823
p2010
sbsg23
g1
(g24
g3
Ntp2011
Rp2012
(dp2013
g28
I-1
sg29
F26.0
sg30
I00
sg31
I00
sg32
F0.0
sg33
F0.0
sg12
g2007
sbsbag1
(g2
g3
Ntp2014
Rp2015
(dp2016
g7
g1
(g8
g3
Ntp2017
Rp2018
(dp2019
g12
g13
(S'\x07\xda\x01\x11\x00\x00\x00\x00\x00\x00'
p2020
tp2021
Rp2022
sg17
VU
p2023
sg19
VBelmont-North Main
p2024
sg21
V6973
p2025
sbsg23
g1
(g24
g3
Ntp2026
Rp2027
(dp2028
g28
I-1
sg29
F28.0
sg30
I01
sg31
I00
sg32
F0.0
sg33
F0.0
sg12
g2022
sbsbag1
(g2
g3
Ntp2029
Rp2030
(dp2031
g7
g1
(g8
g3
Ntp2032
Rp2033
(dp2034
g12
g13
(S'\x07\xda\x01\x12\x00\x00\x00\x00\x00\x00'
p2035
tp2036
Rp2037
sg17
VW
p2038
sg19
VBelmont-North Main
p2039
sg21
V8054
p2040
sbsg23
g1
(g24
g3
Ntp2041
Rp2042
(dp2043
g28
I-1
sg29
F29.0
sg30
I01
sg31
I00
sg32
F0.0
sg33
F0.0
sg12
g2037
sbsbag1
(g2
g3
Ntp2044
Rp2045
(dp2046
g7
g1
(g8
g3
Ntp2047
Rp2048
(dp2049
g12
g13
(S'\x07\xda\x01\x13\x00\x00\x00\x00\x00\x00'
p2050
tp2051
Rp2052
sg17
VW
p2053
sg19
VBelmont-North Main
p2054
sg21
V10524
p2055
sbsg23
g1
(g24
g3
Ntp2056
Rp2057
(dp2058
g28
I-1
sg29
F30.0
sg30
I00
sg31
I00
sg32
F0.0
sg33
F0.0
sg12
g2052
sbsbag1
(g2
g3
Ntp2059
Rp2060
(dp2061
g7
g1
(g8
g3
Ntp2062
Rp2063
(dp2064
g12
g13
(S'\x07\xda\x01\x14\x00\x00\x00\x00\x00\x00'
p2065
tp2066
Rp2067
sg17
VW
p2068
sg19
VBelmont-North Main
p2069
sg21
V10515
p2070
sbsg23
g1
(g24
g3
Ntp2071
Rp2072
(dp2073
g28
I-1
sg29
F32.0
sg30
I00
sg31
I01
sg32
F0.0
sg33
F0.03
sg12
g2067
sbsbag1
(g2
g3
Ntp2074
Rp2075
(dp2076
g7
g1
(g8
g3
Ntp2077
Rp2078
(dp2079
g12
g13
(S'\x07\xda\x01\x15\x00\x00\x00\x00\x00\x00'
p2080
tp2081
Rp2082
sg17
VW
p2083
sg19
VBelmont-North Main
p2084
sg21
V10821
p2085
sbsg23
g1
(g24
g3
Ntp2086
Rp2087
(dp2088
g28
I-1
sg29
F32.0
sg30
I00
sg31
I01
sg32
F0.0
sg33
F0.09
sg12
g2082
sbsbag1
(g2
g3
Ntp2089
Rp2090
(dp2091
g7
g1
(g8
g3
Ntp2092
Rp2093
(dp2094
g12
g13
(S'\x07\xda\x01\x16\x00\x00\x00\x00\x00\x00'
p2095
tp2096
Rp2097
sg17
VW
p2098
sg19
VBelmont-North Main
p2099
sg21
V11047
p2100
sbsg23
g1
(g24
g3
Ntp2101
Rp2102
(dp2103
g28
I-1
sg29
F34.0
sg30
I00
sg31
I00
sg32
F0.0
sg33
F0.0
sg12
g2097
sbsbag1
(g2
g3
Ntp2104
Rp2105
(dp2106
g7
g1
(g8
g3
Ntp2107
Rp2108
(dp2109
g12
g13
(S'\x07\xda\x01\x17\x00\x00\x00\x00\x00\x00'
p2110
tp2111
Rp2112
sg17
VA
p2113
sg19
VBelmont-North Main
p2114
sg21
V8981
p2115
sbsg23
g1
(g24
g3
Ntp2116
Rp2117
(dp2118
g28
I-1
sg29
F39.0
sg30
I00
sg31
I00
sg32
F0.0
sg33
F0.0
sg12
g2112
sbsbag1
(g2
g3
Ntp2119
Rp2120
(dp2121
g7
g1
(g8
g3
Ntp2122
Rp2123
(dp2124
g12
g13
(S'\x07\xda\x01\x18\x00\x00\x00\x00\x00\x00'
p2125
tp2126
Rp2127
sg17
VU
p2128
sg19
VBelmont-North Main
p2129
sg21
V6193
p2130
sbsg23
g1
(g24
g3
Ntp2131
Rp2132
(dp2133
g28
I-1
sg29
F38.0
sg30
I00
sg31
I01
sg32
F0.0
sg33
F0.33
sg12
g2127
sbsbag1
(g2
g3
Ntp2134
Rp2135
(dp2136
g7
g1
(g8
g3
Ntp2137
Rp2138
(dp2139
g12
g13
(S'\x07\xda\x01\x19\x00\x00\x00\x00\x00\x00'
p2140
tp2141
Rp2142
sg17
VW
p2143
sg19
VBelmont-North Main
p2144
sg21
V10056
p2145
sbsg23
g1
(g24
g3
Ntp2146
Rp2147
(dp2148
g28
F1.0
sg29
F26.0
sg30
I01
sg31
I00
sg32
F0.0
sg33
F0.0
sg12
g2142
sbsbag1
(g2
g3
Ntp2149
Rp2150
(dp2151
g7
g1
(g8
g3
Ntp2152
Rp2153
(dp2154
g12
g13
(S'\x07\xda\x01\x1a\x00\x00\x00\x00\x00\x00'
p2155
tp2156
Rp2157
sg17
VW
p2158
sg19
VBelmont-North Main
p2159
sg21
V10312
p2160
sbsg23
g1
(g24
g3
Ntp2161
Rp2162
(dp2163
g28
F1.0
sg29
F18.0
sg30
I01
sg31
I00
sg32
F0.0
sg33
F0.0
sg12
g2157
sbsbag1
(g2
g3
Ntp2164
Rp2165
(dp2166
g7
g1
(g8
g3
Ntp2167
Rp2168
(dp2169
g12
g13
(S'\x07\xda\x01\x1b\x00\x00\x00\x00\x00\x00'
p2170
tp2171
Rp2172
sg17
VW
p2173
sg19
VBelmont-North Main
p2174
sg21
V10498
p2175
sbsg23
g1
(g24
g3
Ntp2176
Rp2177
(dp2178
g28
F1.0
sg29
F17.0
sg30
I01
sg31
I00
sg32
F0.0
sg33
F0.0
sg12
g2172
sbsbag1
(g2
g3
Ntp2179
Rp2180
(dp2181
g7
g1
(g8
g3
Ntp2182
Rp2183
(dp2184
g12
g13
(S'\x07\xda\x01\x1c\x00\x00\x00\x00\x00\x00'
p2185
tp2186
Rp2187
sg17
VW
p2188
sg19
VBelmont-North Main
p2189
sg21
V10492
p2190
sbsg23
g1
(g24
g3
Ntp2191
Rp2192
(dp2193
g28
F1.0
sg29
F12.0
sg30
I00
sg31
I00
sg32
F0.0
sg33
F0.0
sg12
g2187
sbsbag1
(g2
g3
Ntp2194
Rp2195
(dp2196
g7
g1
(g8
g3
Ntp2197
Rp2198
(dp2199
g12
g13
(S'\x07\xda\x01\x1d\x00\x00\x00\x00\x00\x00'
p2200
tp2201
Rp2202
sg17
VW
p2203
sg19
VBelmont-North Main
p2204
sg21
V10734
p2205
sbsg23
g1
(g24
g3
Ntp2206
Rp2207
(dp2208
g28
I-1
sg29
F12.0
sg30
I01
sg31
I00
sg32
F0.0
sg33
F0.0
sg12
g2202
sbsbag1
(g2
g3
Ntp2209
Rp2210
(dp2211
g7
g1
(g8
g3
Ntp2212
Rp2213
(dp2214
g12
g13
(S'\x07\xda\x01\x02\x00\x00\x00\x00\x00\x00'
p2215
tp2216
Rp2217
sg17
VA
p2218
sg19
VBelmont-North Main
p2219
sg21
V6094
p2220
sbsg23
g1
(g24
g3
Ntp2221
Rp2222
(dp2223
g28
F2.0
sg29
F8.0
sg30
I01
sg31
I00
sg32
F0.0
sg33
F0.0
sg12
g2217
sbsbag1
(g2
g3
Ntp2224
Rp2225
(dp2226
g7
g1
(g8
g3
Ntp2227
Rp2228
(dp2229
g12
g13
(S'\x07\xda\x06\x01\x00\x00\x00\x00\x00\x00'
p2230
tp2231
Rp2232
sg17
VW
p2233
sg19
VBelmont-North Main
p2234
sg21
V10817
p2235
sbsg23
g1
(g24
g3
Ntp2236
Rp2237
(dp2238
g28
I-1
sg29
F74.0
sg30
I00
sg31
I00
sg32
F0.0
sg33
F0.0
sg12
g2232
sbsbag1
(g2
g3
Ntp2239
Rp2240
(dp2241
g7
g1
(g8
g3
Ntp2242
Rp2243
(dp2244
g12
g13
(S'\x07\xda\x06\x02\x00\x00\x00\x00\x00\x00'
p2245
tp2246
Rp2247
sg17
VW
p2248
sg19
VBelmont-North Main
p2249
sg21
V11112
p2250
sbsg23
g1
(g24
g3
Ntp2251
Rp2252
(dp2253
g28
I-1
sg29
F68.0
sg30
I00
sg31
I01
sg32
F0.0
sg33
F1.3
sg12
g2247
sbsbag1
(g2
g3
Ntp2254
Rp2255
(dp2256
g7
g1
(g8
g3
Ntp2257
Rp2258
(dp2259
g12
g13
(S'\x07\xda\x06\x03\x00\x00\x00\x00\x00\x00'
p2260
tp2261
Rp2262
sg17
VW
p2263
sg19
VBelmont-North Main
p2264
sg21
V11722
p2265
sbsg23
g1
(g24
g3
Ntp2266
Rp2267
(dp2268
g28
I-1
sg29
F64.0
sg30
I00
sg31
I00
sg32
F0.0
sg33
F0.0
sg12
g2262
sbsbag1
(g2
g3
Ntp2269
Rp2270
(dp2271
g7
g1
(g8
g3
Ntp2272
Rp2273
(dp2274
g12
g13
(S'\x07\xda\x06\x04\x00\x00\x00\x00\x00\x00'
p2275
tp2276
Rp2277
sg17
VW
p2278
sg19
VBelmont-North Main
p2279
sg21
V12026
p2280
sbsg23
g1
(g24
g3
Ntp2281
Rp2282
(dp2283
g28
I-1
sg29
F72.0
sg30
I00
sg31
I00
sg32
F0.0
sg33
F0.0
sg12
g2277
sbsbag1
(g2
g3
Ntp2284
Rp2285
(dp2286
g7
g1
(g8
g3
Ntp2287
Rp2288
(dp2289
g12
g13
(S'\x07\xda\x06\x05\x00\x00\x00\x00\x00\x00'
p2290
tp2291
Rp2292
sg17
VA
p2293
sg19
VBelmont-North Main
p2294
sg21
V9466
p2295
sbsg23
g1
(g24
g3
Ntp2296
Rp2297
(dp2298
g28
I-1
sg29
F70.0
sg30
I00
sg31
I01
sg32
F0.0
sg33
F0.51
sg12
g2292
sbsbag1
(g2
g3
Ntp2299
Rp2300
(dp2301
g7
g1
(g8
g3
Ntp2302
Rp2303
(dp2304
g12
g13
(S'\x07\xda\x06\x06\x00\x00\x00\x00\x00\x00'
p2305
tp2306
Rp2307
sg17
VU
p2308
sg19
VBelmont-North Main
p2309
sg21
V7387
p2310
sbsg23
g1
(g24
g3
Ntp2311
Rp2312
(dp2313
g28
I-1
sg29
F66.0
sg30
I00
sg31
I01
sg32
F0.0
sg33
F0.0
sg12
g2307
sbsbag1
(g2
g3
Ntp2314
Rp2315
(dp2316
g7
g1
(g8
g3
Ntp2317
Rp2318
(dp2319
g12
g13
(S'\x07\xda\x06\x07\x00\x00\x00\x00\x00\x00'
p2320
tp2321
Rp2322
sg17
VW
p2323
sg19
VBelmont-North Main
p2324
sg21
V11201
p2325
sbsg23
g1
(g24
g3
Ntp2326
Rp2327
(dp2328
g28
I-1
sg29
F62.0
sg30
I00
sg31
I00
sg32
F0.0
sg33
F0.0
sg12
g2322
sbsbag1
(g2
g3
Ntp2329
Rp2330
(dp2331
g7
g1
(g8
g3
Ntp2332
Rp2333
(dp2334
g12
g13
(S'\x07\xda\x06\x08\x00\x00\x00\x00\x00\x00'
p2335
tp2336
Rp2337
sg17
VW
p2338
sg19
VBelmont-North Main
p2339
sg21
V10884
p2340
sbsg23
g1
(g24
g3
Ntp2341
Rp2342
(dp2343
g28
I-1
sg29
F63.0
sg30
I00
sg31
I01
sg32
F0.0
sg33
F0.33
sg12
g2337
sbsbag1
(g2
g3
Ntp2344
Rp2345
(dp2346
g7
g1
(g8
g3
Ntp2347
Rp2348
(dp2349
g12
g13
(S'\x07\xda\x06\t\x00\x00\x00\x00\x00\x00'
p2350
tp2351
Rp2352
sg17
VW
p2353
sg19
VBelmont-North Main
p2354
sg21
V11828
p2355
sbsg23
g1
(g24
g3
Ntp2356
Rp2357
(dp2358
g28
I-1
sg29
F76.0
sg30
I00
sg31
I00
sg32
F0.0
sg33
F0.0
sg12
g2352
sbsbag1
(g2
g3
Ntp2359
Rp2360
(dp2361
g7
g1
(g8
g3
Ntp2362
Rp2363
(dp2364
g12
g13
(S'\x07\xda\x06\n\x00\x00\x00\x00\x00\x00'
p2365
tp2366
Rp2367
sg17
VW
p2368
sg19
VBelmont-North Main
p2369
sg21
V12486
p2370
sbsg23
g1
(g24
g3
Ntp2371
Rp2372
(dp2373
g28
I-1
sg29
F67.0
sg30
I00
sg31
I00
sg32
F0.0
sg33
F0.0
sg12
g2367
sbsbag1
(g2
g3
Ntp2374
Rp2375
(dp2376
g7
g1
(g8
g3
Ntp2377
Rp2378
(dp2379
g12
g13
(S'\x07\xda\x06\x0b\x00\x00\x00\x00\x00\x00'
p2380
tp2381
Rp2382
sg17
VW
p2383
sg19
VBelmont-North Main
p2384
sg21
V14979
p2385
sbsg23
g1
(g24
g3
Ntp2386
Rp2387
(dp2388
g28
I-1
sg29
F76.0
sg30
I00
sg31
I01
sg32
F0.0
sg33
F0.07
sg12
g2382
sbsbag1
(g2
g3
Ntp2389
Rp2390
(dp2391
g7
g1
(g8
g3
Ntp2392
Rp2393
(dp2394
g12
g13
(S'\x07\xda\x06\x0c\x00\x00\x00\x00\x00\x00'
p2395
tp2396
Rp2397
sg17
VA
p2398
sg19
VBelmont-North Main
p2399
sg21
V10695
p2400
sbsg23
g1
(g24
g3
Ntp2401
Rp2402
(dp2403
g28
I-1
sg29
F70.0
sg30
I00
sg31
I01
sg32
F0.0
sg33
F0.12
sg12
g2397
sbsbag1
(g2
g3
Ntp2404
Rp2405
(dp2406
g7
g1
(g8
g3
Ntp2407
Rp2408
(dp2409
g12
g13
(S'\x07\xda\x06\r\x00\x00\x00\x00\x00\x00'
p2410
tp2411
Rp2412
sg17
VU
p2413
sg19
VBelmont-North Main
p2414
sg21
V7957
p2415
sbsg23
g1
(g24
g3
Ntp2416
Rp2417
(dp2418
g28
I-1
sg29
F66.0
sg30
I00
sg31
I01
sg32
F0.0
sg33
F0.25
sg12
g2412
sbsbag1
(g2
g3
Ntp2419
Rp2420
(dp2421
g7
g1
(g8
g3
Ntp2422
Rp2423
(dp2424
g12
g13
(S'\x07\xda\x06\x0e\x00\x00\x00\x00\x00\x00'
p2425
tp2426
Rp2427
sg17
VW
p2428
sg19
VBelmont-North Main
p2429
sg21
V11056
p2430
sbsg23
g1
(g24
g3
Ntp2431
Rp2432
(dp2433
g28
I-1
sg29
F66.0
sg30
I00
sg31
I01
sg32
F0.0
sg33
F0.01
sg12
g2427
sbsbag1
(g2
g3
Ntp2434
Rp2435
(dp2436
g7
g1
(g8
g3
Ntp2437
Rp2438
(dp2439
g12
g13
(S'\x07\xda\x06\x0f\x00\x00\x00\x00\x00\x00'
p2440
tp2441
Rp2442
sg17
VW
p2443
sg19
VBelmont-North Main
p2444
sg21
V11305
p2445
sbsg23
g1
(g24
g3
Ntp2446
Rp2447
(dp2448
g28
I-1
sg29
F70.0
sg30
I00
sg31
I01
sg32
F0.0
sg33
F0.88
sg12
g2442
sbsbag1
(g2
g3
Ntp2449
Rp2450
(dp2451
g7
g1
(g8
g3
Ntp2452
Rp2453
(dp2454
g12
g13
(S'\x07\xda\x06\x10\x00\x00\x00\x00\x00\x00'
p2455
tp2456
Rp2457
sg17
VW
p2458
sg19
VBelmont-North Main
p2459
sg21
V12468
p2460
sbsg23
g1
(g24
g3
Ntp2461
Rp2462
(dp2463
g28
I-1
sg29
F73.0
sg30
I00
sg31
I00
sg32
F0.0
sg33
F0.0
sg12
g2457
sbsbag1
(g2
g3
Ntp2464
Rp2465
(dp2466
g7
g1
(g8
g3
Ntp2467
Rp2468
(dp2469
g12
g13
(S'\x07\xda\x06\x11\x00\x00\x00\x00\x00\x00'
p2470
tp2471
Rp2472
sg17
VW
p2473
sg19
VBelmont-North Main
p2474
sg21
V12778
p2475
sbsg23
g1
(g24
g3
Ntp2476
Rp2477
(dp2478
g28
I-1
sg29
F74.0
sg30
I00
sg31
I00
sg32
F0.0
sg33
F0.0
sg12
g2472
sbsbag1
(g2
g3
Ntp2479
Rp2480
(dp2481
g7
g1
(g8
g3
Ntp2482
Rp2483
(dp2484
g12
g13
(S'\x07\xda\x06\x12\x00\x00\x00\x00\x00\x00'
p2485
tp2486
Rp2487
sg17
VW
p2488
sg19
VBelmont-North Main
p2489
sg21
V12036
p2490
sbsg23
g1
(g24
g3
Ntp2491
Rp2492
(dp2493
g28
I-1
sg29
F77.0
sg30
I00
sg31
I01
sg32
F0.0
sg33
F0.64
sg12
g2487
sbsbag1
(g2
g3
Ntp2494
Rp2495
(dp2496
g7
g1
(g8
g3
Ntp2497
Rp2498
(dp2499
g12
g13
(S'\x07\xda\x06\x13\x00\x00\x00\x00\x00\x00'
p2500
tp2501
Rp2502
sg17
VA
p2503
sg19
VBelmont-North Main
p2504
sg21
V10930
p2505
sbsg23
g1
(g24
g3
Ntp2506
Rp2507
(dp2508
g28
I-1
sg29
F75.0
sg30
I00
sg31
I01
sg32
F0.0
sg33
F0.02
sg12
g2502
sbsbag1
(g2
g3
Ntp2509
Rp2510
(dp2511
g7
g1
(g8
g3
Ntp2512
Rp2513
(dp2514
g12
g13
(S'\x07\xda\x06\x14\x00\x00\x00\x00\x00\x00'
p2515
tp2516
Rp2517
sg17
VU
p2518
sg19
VBelmont-North Main
p2519
sg21
V6479
p2520
sbsg23
g1
(g24
g3
Ntp2521
Rp2522
(dp2523
g28
I-1
sg29
F72.0
sg30
I00
sg31
I00
sg32
F0.0
sg33
F0.0
sg12
g2517
sbsbag1
(g2
g3
Ntp2524
Rp2525
(dp2526
g7
g1
(g8
g3
Ntp2527
Rp2528
(dp2529
g12
g13
(S'\x07\xda\x06\x15\x00\x00\x00\x00\x00\x00'
p2530
tp2531
Rp2532
sg17
VW
p2533
sg19
VBelmont-North Main
p2534
sg21
V10266
p2535
sbsg23
g1
(g24
g3
Ntp2536
Rp2537
(dp2538
g28
I-1
sg29
F76.0
sg30
I00
sg31
I01
sg32
F0.0
sg33
F0.4
sg12
g2532
sbsbag1
(g2
g3
Ntp2539
Rp2540
(dp2541
g7
g1
(g8
g3
Ntp2542
Rp2543
(dp2544
g12
g13
(S'\x07\xda\x06\x16\x00\x00\x00\x00\x00\x00'
p2545
tp2546
Rp2547
sg17
VW
p2548
sg19
VBelmont-North Main
p2549
sg21
V10974
p2550
sbsg23
g1
(g24
g3
Ntp2551
Rp2552
(dp2553
g28
I-1
sg29
F78.0
sg30
I00
sg31
I00
sg32
F0.0
sg33
F0.0
sg12
g2547
sbsbag1
(g2
g3
Ntp2554
Rp2555
(dp2556
g7
g1
(g8
g3
Ntp2557
Rp2558
(dp2559
g12
g13
(S'\x07\xda\x06\x17\x00\x00\x00\x00\x00\x00'
p2560
tp2561
Rp2562
sg17
VW
p2563
sg19
VBelmont-North Main
p2564
sg21
V10246
p2565
sbsg23
g1
(g24
g3
Ntp2566
Rp2567
(dp2568
g28
I-1
sg29
F77.0
sg30
I00
sg31
I01
sg32
F0.0
sg33
F1.23
sg12
g2562
sbsbag1
(g2
g3
Ntp2569
Rp2570
(dp2571
g7
g1
(g8
g3
Ntp2572
Rp2573
(dp2574
g12
g13
(S'\x07\xda\x06\x18\x00\x00\x00\x00\x00\x00'
p2575
tp2576
Rp2577
sg17
VW
p2578
sg19
VBelmont-North Main
p2579
sg21
V11399
p2580
sbsg23
g1
(g24
g3
Ntp2581
Rp2582
(dp2583
g28
I-1
sg29
F73.0
sg30
I00
sg31
I00
sg32
F0.0
sg33
F0.0
sg12
g2577
sbsbag1
(g2
g3
Ntp2584
Rp2585
(dp2586
g7
g1
(g8
g3
Ntp2587
Rp2588
(dp2589
g12
g13
(S'\x07\xda\x06\x19\x00\x00\x00\x00\x00\x00'
p2590
tp2591
Rp2592
sg17
VW
p2593
sg19
VBelmont-North Main
p2594
sg21
V12641
p2595
sbsg23
g1
(g24
g3
Ntp2596
Rp2597
(dp2598
g28
I-1
sg29
F74.0
sg30
I00
sg31
I00
sg32
F0.0
sg33
F0.0
sg12
g2592
sbsbag1
(g2
g3
Ntp2599
Rp2600
(dp2601
g7
g1
(g8
g3
Ntp2602
Rp2603
(dp2604
g12
g13
(S'\x07\xda\x06\x1a\x00\x00\x00\x00\x00\x00'
p2605
tp2606
Rp2607
sg17
VA
p2608
sg19
VBelmont-North Main
p2609
sg21
V11878
p2610
sbsg23
g1
(g24
g3
Ntp2611
Rp2612
(dp2613
g28
I-1
sg29
F78.0
sg30
I00
sg31
I01
sg32
F0.0
sg33
F0.67
sg12
g2607
sbsbag1
(g2
g3
Ntp2614
Rp2615
(dp2616
g7
g1
(g8
g3
Ntp2617
Rp2618
(dp2619
g12
g13
(S'\x07\xda\x06\x1b\x00\x00\x00\x00\x00\x00'
p2620
tp2621
Rp2622
sg17
VU
p2623
sg19
VBelmont-North Main
p2624
sg21
V29050
p2625
sbsg23
g1
(g24
g3
Ntp2626
Rp2627
(dp2628
g28
I-1
sg29
F80.0
sg30
I00
sg31
I01
sg32
F0.0
sg33
F0.24
sg12
g2622
sbsbag1
(g2
g3
Ntp2629
Rp2630
(dp2631
g7
g1
(g8
g3
Ntp2632
Rp2633
(dp2634
g12
g13
(S'\x07\xda\x06\x1c\x00\x00\x00\x00\x00\x00'
p2635
tp2636
Rp2637
sg17
VW
p2638
sg19
VBelmont-North Main
p2639
sg21
V12570
p2640
sbsg23
g1
(g24
g3
Ntp2641
Rp2642
(dp2643
g28
I-1
sg29
F74.0
sg30
I00
sg31
I01
sg32
F0.0
sg33
F0.64
sg12
g2637
sbsbag1
(g2
g3
Ntp2644
Rp2645
(dp2646
g7
g1
(g8
g3
Ntp2647
Rp2648
(dp2649
g12
g13
(S'\x07\xda\x06\x1d\x00\x00\x00\x00\x00\x00'
p2650
tp2651
Rp2652
sg17
VW
p2653
sg19
VBelmont-North Main
p2654
sg21
V11717
p2655
sbsg23
g1
(g24
g3
Ntp2656
Rp2657
(dp2658
g28
I-1
sg29
F68.0
sg30
I00
sg31
I00
sg32
F0.0
sg33
F0.0
sg12
g2652
sbsbag1
(g2
g3
Ntp2659
Rp2660
(dp2661
g7
g1
(g8
g3
Ntp2662
Rp2663
(dp2664
g12
g13
(S'\x07\xda\x03\x01\x00\x00\x00\x00\x00\x00'
p2665
tp2666
Rp2667
sg17
VW
p2668
sg19
VBelmont-North Main
p2669
sg21
V10017
p2670
sbsg23
g1
(g24
g3
Ntp2671
Rp2672
(dp2673
g28
F1.0
sg29
F34.0
sg30
I01
sg31
I00
sg32
F0.0
sg33
F0.0
sg12
g2667
sbsbag1
(g2
g3
Ntp2674
Rp2675
(dp2676
g7
g1
(g8
g3
Ntp2677
Rp2678
(dp2679
g12
g13
(S'\x07\xda\x03\x02\x00\x00\x00\x00\x00\x00'
p2680
tp2681
Rp2682
sg17
VW
p2683
sg19
VBelmont-North Main
p2684
sg21
V10611
p2685
sbsg23
g1
(g24
g3
Ntp2686
Rp2687
(dp2688
g28
F1.0
sg29
F32.0
sg30
I00
sg31
I00
sg32
F0.0
sg33
F0.0
sg12
g2682
sbsbag1
(g2
g3
Ntp2689
Rp2690
(dp2691
g7
g1
(g8
g3
Ntp2692
Rp2693
(dp2694
g12
g13
(S'\x07\xda\x03\x03\x00\x00\x00\x00\x00\x00'
p2695
tp2696
Rp2697
sg17
VW
p2698
sg19
VBelmont-North Main
p2699
sg21
V11040
p2700
sbsg23
g1
(g24
g3
Ntp2701
Rp2702
(dp2703
g28
F1.0
sg29
F32.0
sg30
I00
sg31
I00
sg32
F0.0
sg33
F0.0
sg12
g2697
sbsbag1
(g2
g3
Ntp2704
Rp2705
(dp2706
g7
g1
(g8
g3
Ntp2707
Rp2708
(dp2709
g12
g13
(S'\x07\xda\x03\x04\x00\x00\x00\x00\x00\x00'
p2710
tp2711
Rp2712
sg17
VW
p2713
sg19
VBelmont-North Main
p2714
sg21
V11526
p2715
sbsg23
g1
(g24
g3
Ntp2716
Rp2717
(dp2718
g28
I-1
sg29
F34.0
sg30
I00
sg31
I00
sg32
F0.0
sg33
F0.0
sg12
g2712
sbsbag1
(g2
g3
Ntp2719
Rp2720
(dp2721
g7
g1
(g8
g3
Ntp2722
Rp2723
(dp2724
g12
g13
(S'\x07\xda\x03\x05\x00\x00\x00\x00\x00\x00'
p2725
tp2726
Rp2727
sg17
VW
p2728
sg19
VBelmont-North Main
p2729
sg21
V11888
p2730
sbsg23
g1
(g24
g3
Ntp2731
Rp2732
(dp2733
g28
I-1
sg29
F32.0
sg30
I00
sg31
I00
sg32
F0.0
sg33
F0.0
sg12
g2727
sbsbag1
(g2
g3
Ntp2734
Rp2735
(dp2736
g7
g1
(g8
g3
Ntp2737
Rp2738
(dp2739
g12
g13
(S'\x07\xda\x03\x06\x00\x00\x00\x00\x00\x00'
p2740
tp2741
Rp2742
sg17
VA
p2743
sg19
VBelmont-North Main
p2744
sg21
V10678
p2745
sbsg23
g1
(g24
g3
Ntp2746
Rp2747
(dp2748
g28
I-1
sg29
F36.0
sg30
I00
sg31
I00
sg32
F0.0
sg33
F0.0
sg12
g2742
sbsbag1
(g2
g3
Ntp2749
Rp2750
(dp2751
g7
g1
(g8
g3
Ntp2752
Rp2753
(dp2754
g12
g13
(S'\x07\xda\x03\x07\x00\x00\x00\x00\x00\x00'
p2755
tp2756
Rp2757
sg17
VU
p2758
sg19
VBelmont-North Main
p2759
sg21
V6890
p2760
sbsg23
g1
(g24
g3
Ntp2761
Rp2762
(dp2763
g28
I-1
sg29
F39.0
sg30
I00
sg31
I01
sg32
F0.0
sg33
F0.11
sg12
g2757
sbsbag1
(g2
g3
Ntp2764
Rp2765
(dp2766
g7
g1
(g8
g3
Ntp2767
Rp2768
(dp2769
g12
g13
(S'\x07\xda\x03\x08\x00\x00\x00\x00\x00\x00'
p2770
tp2771
Rp2772
sg17
VW
p2773
sg19
VBelmont-North Main
p2774
sg21
V10495
p2775
sbsg23
g1
(g24
g3
Ntp2776
Rp2777
(dp2778
g28
I-1
sg29
F40.0
sg30
I00
sg31
I00
sg32
F0.0
sg33
F0.0
sg12
g2772
sbsbag1
(g2
g3
Ntp2779
Rp2780
(dp2781
g7
g1
(g8
g3
Ntp2782
Rp2783
(dp2784
g12
g13
(S'\x07\xda\x03\t\x00\x00\x00\x00\x00\x00'
p2785
tp2786
Rp2787
sg17
VW
p2788
sg19
VBelmont-North Main
p2789
sg21
V11031
p2790
sbsg23
g1
(g24
g3
Ntp2791
Rp2792
(dp2793
g28
I-1
sg29
F40.0
sg30
I00
sg31
I01
sg32
F0.0
sg33
F0.0
sg12
g2787
sbsbag1
(g2
g3
Ntp2794
Rp2795
(dp2796
g7
g1
(g8
g3
Ntp2797
Rp2798
(dp2799
g12
g13
(S'\x07\xda\x03\n\x00\x00\x00\x00\x00\x00'
p2800
tp2801
Rp2802
sg17
VW
p2803
sg19
VBelmont-North Main
p2804
sg21
V11463
p2805
sbsg23
g1
(g24
g3
Ntp2806
Rp2807
(dp2808
g28
I-1
sg29
F56.0
sg30
I00
sg31
I01
sg32
F0.0
sg33
F0.09
sg12
g2802
sbsbag1
(g2
g3
Ntp2809
Rp2810
(dp2811
g7
g1
(g8
g3
Ntp2812
Rp2813
(dp2814
g12
g13
(S'\x07\xda\x03\x0b\x00\x00\x00\x00\x00\x00'
p2815
tp2816
Rp2817
sg17
VW
p2818
sg19
VBelmont-North Main
p2819
sg21
V11498
p2820
sbsg23
g1
(g24
g3
Ntp2821
Rp2822
(dp2823
g28
I-1
sg29
F56.0
sg30
I00
sg31
I01
sg32
F0.0
sg33
F0.23
sg12
g2817
sbsbag1
(g2
g3
Ntp2824
Rp2825
(dp2826
g7
g1
(g8
g3
Ntp2827
Rp2828
(dp2829
g12
g13
(S'\x07\xda\x03\x0c\x00\x00\x00\x00\x00\x00'
p2830
tp2831
Rp2832
sg17
VW
p2833
sg19
VBelmont-North Main
p2834
sg21
V12397
p2835
sbsg23
g1
(g24
g3
Ntp2836
Rp2837
(dp2838
g28
I-1
sg29
F48.0
sg30
I00
sg31
I01
sg32
F0.0
sg33
F0.05
sg12
g2832
sbsbag1
(g2
g3
Ntp2839
Rp2840
(dp2841
g7
g1
(g8
g3
Ntp2842
Rp2843
(dp2844
g12
g13
(S'\x07\xda\x03\r\x00\x00\x00\x00\x00\x00'
p2845
tp2846
Rp2847
sg17
VA
p2848
sg19
VBelmont-North Main
p2849
sg21
V11035
p2850
sbsg23
g1
(g24
g3
Ntp2851
Rp2852
(dp2853
g28
I-1
sg29
F45.0
sg30
I00
sg31
I01
sg32
F0.0
sg33
F0.54
sg12
g2847
sbsbag1
(g2
g3
Ntp2854
Rp2855
(dp2856
g7
g1
(g8
g3
Ntp2857
Rp2858
(dp2859
g12
g13
(S'\x07\xda\x03\x0e\x00\x00\x00\x00\x00\x00'
p2860
tp2861
Rp2862
sg17
VU
p2863
sg19
VBelmont-North Main
p2864
sg21
V7413
p2865
sbsg23
g1
(g24
g3
Ntp2866
Rp2867
(dp2868
g28
I-1
sg29
F44.0
sg30
I00
sg31
I01
sg32
F0.0
sg33
F0.0
sg12
g2862
sbsbag1
(g2
g3
Ntp2869
Rp2870
(dp2871
g7
g1
(g8
g3
Ntp2872
Rp2873
(dp2874
g12
g13
(S'\x07\xda\x03\x0f\x00\x00\x00\x00\x00\x00'
p2875
tp2876
Rp2877
sg17
VW
p2878
sg19
VBelmont-North Main
p2879
sg21
V10743
p2880
sbsg23
g1
(g24
g3
Ntp2881
Rp2882
(dp2883
g28
I-1
sg29
F45.0
sg30
I00
sg31
I00
sg32
F0.0
sg33
F0.0
sg12
g2877
sbsbag1
(g2
g3
Ntp2884
Rp2885
(dp2886
g7
g1
(g8
g3
Ntp2887
Rp2888
(dp2889
g12
g13
(S'\x07\xda\x03\x10\x00\x00\x00\x00\x00\x00'
p2890
tp2891
Rp2892
sg17
VW
p2893
sg19
VBelmont-North Main
p2894
sg21
V11610
p2895
sbsg23
g1
(g24
g3
Ntp2896
Rp2897
(dp2898
g28
I-1
sg29
F48.0
sg30
I00
sg31
I00
sg32
F0.0
sg33
F0.0
sg12
g2892
sbsbag1
(g2
g3
Ntp2899
Rp2900
(dp2901
g7
g1
(g8
g3
Ntp2902
Rp2903
(dp2904
g12
g13
(S'\x07\xda\x03\x11\x00\x00\x00\x00\x00\x00'
p2905
tp2906
Rp2907
sg17
VW
p2908
sg19
VBelmont-North Main
p2909
sg21
V11933
p2910
sbsg23
g1
(g24
g3
Ntp2911
Rp2912
(dp2913
g28
I-1
sg29
F48.0
sg30
I00
sg31
I00
sg32
F0.0
sg33
F0.0
sg12
g2907
sbsbag1
(g2
g3
Ntp2914
Rp2915
(dp2916
g7
g1
(g8
g3
Ntp2917
Rp2918
(dp2919
g12
g13
(S'\x07\xda\x03\x12\x00\x00\x00\x00\x00\x00'
p2920
tp2921
Rp2922
sg17
VW
p2923
sg19
VBelmont-North Main
p2924
sg21
V12245
p2925
sbsg23
g1
(g24
g3
Ntp2926
Rp2927
(dp2928
g28
I-1
sg29
F50.0
sg30
I00
sg31
I00
sg32
F0.0
sg33
F0.0
sg12
g2922
sbsbag1
(g2
g3
Ntp2929
Rp2930
(dp2931
g7
g1
(g8
g3
Ntp2932
Rp2933
(dp2934
g12
g13
(S'\x07\xda\x03\x13\x00\x00\x00\x00\x00\x00'
p2935
tp2936
Rp2937
sg17
VW
p2938
sg19
VBelmont-North Main
p2939
sg21
V11915
p2940
sbsg23
g1
(g24
g3
Ntp2941
Rp2942
(dp2943
g28
I-1
sg29
F52.0
sg30
I00
sg31
I00
sg32
F0.0
sg33
F0.0
sg12
g2937
sbsbag1
(g2
g3
Ntp2944
Rp2945
(dp2946
g7
g1
(g8
g3
Ntp2947
Rp2948
(dp2949
g12
g13
(S'\x07\xda\x03\x14\x00\x00\x00\x00\x00\x00'
p2950
tp2951
Rp2952
sg17
VA
p2953
sg19
VBelmont-North Main
p2954
sg21
V7919
p2955
sbsg23
g1
(g24
g3
Ntp2956
Rp2957
(dp2958
g28
F1.0
sg29
F36.0
sg30
I01
sg31
I01
sg32
F0.0
sg33
F0.13
sg12
g2952
sbsbag1
(g2
g3
Ntp2959
Rp2960
(dp2961
g7
g1
(g8
g3
Ntp2962
Rp2963
(dp2964
g12
g13
(S'\x07\xda\x03\x15\x00\x00\x00\x00\x00\x00'
p2965
tp2966
Rp2967
sg17
VU
p2968
sg19
VBelmont-North Main
p2969
sg21
V6800
p2970
sbsg23
g1
(g24
g3
Ntp2971
Rp2972
(dp2973
g28
F1.0
sg29
F38.0
sg30
I01
sg31
I01
sg32
F0.0
sg33
F0.04
sg12
g2967
sbsbag1
(g2
g3
Ntp2974
Rp2975
(dp2976
g7
g1
(g8
g3
Ntp2977
Rp2978
(dp2979
g12
g13
(S'\x07\xda\x03\x16\x00\x00\x00\x00\x00\x00'
p2980
tp2981
Rp2982
sg17
VW
p2983
sg19
VBelmont-North Main
p2984
sg21
V10102
p2985
sbsg23
g1
(g24
g3
Ntp2986
Rp2987
(dp2988
g28
I-1
sg29
F42.0
sg30
I00
sg31
I00
sg32
F0.0
sg33
F0.0
sg12
g2982
sbsbag1
(g2
g3
Ntp2989
Rp2990
(dp2991
g7
g1
(g8
g3
Ntp2992
Rp2993
(dp2994
g12
g13
(S'\x07\xda\x03\x17\x00\x00\x00\x00\x00\x00'
p2995
tp2996
Rp2997
sg17
VW
p2998
sg19
VBelmont-North Main
p2999
sg21
V10522
p3000
sbsg23
g1
(g24
g3
Ntp3001
Rp3002
(dp3003
g28
I-1
sg29
F42.0
sg30
I00
sg31
I00
sg32
F0.0
sg33
F0.0
sg12
g2997
sbsbag1
(g2
g3
Ntp3004
Rp3005
(dp3006
g7
g1
(g8
g3
Ntp3007
Rp3008
(dp3009
g12
g13
(S'\x07\xda\x03\x18\x00\x00\x00\x00\x00\x00'
p3010
tp3011
Rp3012
sg17
VW
p3013
sg19
VBelmont-North Main
p3014
sg21
V10622
p3015
sbsg23
g1
(g24
g3
Ntp3016
Rp3017
(dp3018
g28
I-1
sg29
F45.0
sg30
I00
sg31
I00
sg32
F0.0
sg33
F0.0
sg12
g3012
sbsbag1
(g2
g3
Ntp3019
Rp3020
(dp3021
g7
g1
(g8
g3
Ntp3022
Rp3023
(dp3024
g12
g13
(S'\x07\xda\x03\x19\x00\x00\x00\x00\x00\x00'
p3025
tp3026
Rp3027
sg17
VW
p3028
sg19
VBelmont-North Main
p3029
sg21
V10343
p3030
sbsg23
g1
(g24
g3
Ntp3031
Rp3032
(dp3033
g28
I-1
sg29
F38.0
sg30
I00
sg31
I01
sg32
F0.0
sg33
F0.0
sg12
g3027
sbsbag1
(g2
g3
Ntp3034
Rp3035
(dp3036
g7
g1
(g8
g3
Ntp3037
Rp3038
(dp3039
g12
g13
(S'\x07\xda\x03\x1a\x00\x00\x00\x00\x00\x00'
p3040
tp3041
Rp3042
sg17
VW
p3043
sg19
VBelmont-North Main
p3044
sg21
V11182
p3045
sbsg23
g1
(g24
g3
Ntp3046
Rp3047
(dp3048
g28
I-1
sg29
F34.0
sg30
I00
sg31
I00
sg32
F0.0
sg33
F0.0
sg12
g3042
sbsbag1
(g2
g3
Ntp3049
Rp3050
(dp3051
g7
g1
(g8
g3
Ntp3052
Rp3053
(dp3054
g12
g13
(S'\x07\xda\x03\x1b\x00\x00\x00\x00\x00\x00'
p3055
tp3056
Rp3057
sg17
VA
p3058
sg19
VBelmont-North Main
p3059
sg21
V9174
p3060
sbsg23
g1
(g24
g3
Ntp3061
Rp3062
(dp3063
g28
I-1
sg29
F42.0
sg30
I00
sg31
I01
sg32
F0.0
sg33
F0.02
sg12
g3057
sbsbag1
(g2
g3
Ntp3064
Rp3065
(dp3066
g7
g1
(g8
g3
Ntp3067
Rp3068
(dp3069
g12
g13
(S'\x07\xda\x03\x1c\x00\x00\x00\x00\x00\x00'
p3070
tp3071
Rp3072
sg17
VU
p3073
sg19
VBelmont-North Main
p3074
sg21
V6965
p3075
sbsg23
g1
(g24
g3
Ntp3076
Rp3077
(dp3078
g28
I-1
sg29
F44.0
sg30
I00
sg31
I01
sg32
F0.0
sg33
F0.0
sg12
g3072
sbsbag1
(g2
g3
Ntp3079
Rp3080
(dp3081
g7
g1
(g8
g3
Ntp3082
Rp3083
(dp3084
g12
g13
(S'\x07\xda\x03\x1d\x00\x00\x00\x00\x00\x00'
p3085
tp3086
Rp3087
sg17
VW
p3088
sg19
VBelmont-North Main
p3089
sg21
V10020
p3090
sbsg23
g1
(g24
g3
Ntp3091
Rp3092
(dp3093
g28
I-1
sg29
F40.0
sg30
I00
sg31
I00
sg32
F0.0
sg33
F0.0
sg12
g3087
sbsbag1
(g2
g3
Ntp3094
Rp3095
(dp3096
g7
g1
(g8
g3
Ntp3097
Rp3098
(dp3099
g12
g13
(S'\x07\xda\x02\x01\x00\x00\x00\x00\x00\x00'
p3100
tp3101
Rp3102
sg17
VW
p3103
sg19
VBelmont-North Main
p3104
sg21
V10083
p3105
sbsg23
g1
(g24
g3
Ntp3106
Rp3107
(dp3108
g28
I-1
sg29
F24.0
sg30
I00
sg31
I00
sg32
F0.0
sg33
F0.0
sg12
g3102
sbsbag1
(g2
g3
Ntp3109
Rp3110
(dp3111
g7
g1
(g8
g3
Ntp3112
Rp3113
(dp3114
g12
g13
(S'\x07\xda\x02\x02\x00\x00\x00\x00\x00\x00'
p3115
tp3116
Rp3117
sg17
VW
p3118
sg19
VBelmont-North Main
p3119
sg21
V10562
p3120
sbsg23
g1
(g24
g3
Ntp3121
Rp3122
(dp3123
g28
F1.0
sg29
F28.0
sg30
I01
sg31
I00
sg32
F0.0
sg33
F0.05
sg12
g3117
sbsbag1
(g2
g3
Ntp3124
Rp3125
(dp3126
g7
g1
(g8
g3
Ntp3127
Rp3128
(dp3129
g12
g13
(S'\x07\xda\x02\x03\x00\x00\x00\x00\x00\x00'
p3130
tp3131
Rp3132
sg17
VW
p3133
sg19
VBelmont-North Main
p3134
sg21
V10768
p3135
sbsg23
g1
(g24
g3
Ntp3136
Rp3137
(dp3138
g28
F1.0
sg29
F26.0
sg30
I00
sg31
I00
sg32
F0.0
sg33
F0.0
sg12
g3132
sbsbag1
(g2
g3
Ntp3139
Rp3140
(dp3141
g7
g1
(g8
g3
Ntp3142
Rp3143
(dp3144
g12
g13
(S'\x07\xda\x02\x04\x00\x00\x00\x00\x00\x00'
p3145
tp3146
Rp3147
sg17
VW
p3148
sg19
VBelmont-North Main
p3149
sg21
V10950
p3150
sbsg23
g1
(g24
g3
Ntp3151
Rp3152
(dp3153
g28
I-1
sg29
F29.0
sg30
I00
sg31
I00
sg32
F0.0
sg33
F0.0
sg12
g3147
sbsbag1
(g2
g3
Ntp3154
Rp3155
(dp3156
g7
g1
(g8
g3
Ntp3157
Rp3158
(dp3159
g12
g13
(S'\x07\xda\x02\x05\x00\x00\x00\x00\x00\x00'
p3160
tp3161
Rp3162
sg17
VW
p3163
sg19
VBelmont-North Main
p3164
sg21
V11410
p3165
sbsg23
g1
(g24
g3
Ntp3166
Rp3167
(dp3168
g28
F1.0
sg29
F32.0
sg30
I01
sg31
I00
sg32
F0.0
sg33
F0.02
sg12
g3162
sbsbag1
(g2
g3
Ntp3169
Rp3170
(dp3171
g7
g1
(g8
g3
Ntp3172
Rp3173
(dp3174
g12
g13
(S'\x07\xda\x02\x06\x00\x00\x00\x00\x00\x00'
p3175
tp3176
Rp3177
sg17
VA
p3178
sg19
VBelmont-North Main
p3179
sg21
V9083
p3180
sbsg23
g1
(g24
g3
Ntp3181
Rp3182
(dp3183
g28
F1.0
sg29
F27.0
sg30
I01
sg31
I00
sg32
F0.0
sg33
F0.0
sg12
g3177
sbsbag1
(g2
g3
Ntp3184
Rp3185
(dp3186
g7
g1
(g8
g3
Ntp3187
Rp3188
(dp3189
g12
g13
(S'\x07\xda\x02\x07\x00\x00\x00\x00\x00\x00'
p3190
tp3191
Rp3192
sg17
VU
p3193
sg19
VBelmont-North Main
p3194
sg21
V6800
p3195
sbsg23
g1
(g24
g3
Ntp3196
Rp3197
(dp3198
g28
F1.0
sg29
F26.0
sg30
I01
sg31
I00
sg32
F0.0
sg33
F0.0
sg12
g3192
sbsbag1
(g2
g3
Ntp3199
Rp3200
(dp3201
g7
g1
(g8
g3
Ntp3202
Rp3203
(dp3204
g12
g13
(S'\x07\xda\x02\x08\x00\x00\x00\x00\x00\x00'
p3205
tp3206
Rp3207
sg17
VW
p3208
sg19
VBelmont-North Main
p3209
sg21
V10101
p3210
sbsg23
g1
(g24
g3
Ntp3211
Rp3212
(dp3213
g28
I-1
sg29
F24.0
sg30
I01
sg31
I00
sg32
F0.0
sg33
F0.0
sg12
g3207
sbsbag1
(g2
g3
Ntp3214
Rp3215
(dp3216
g7
g1
(g8
g3
Ntp3217
Rp3218
(dp3219
g12
g13
(S'\x07\xda\x02\t\x00\x00\x00\x00\x00\x00'
p3220
tp3221
Rp3222
sg17
VW
p3223
sg19
VBelmont-North Main
p3224
sg21
V10187
p3225
sbsg23
g1
(g24
g3
Ntp3226
Rp3227
(dp3228
g28
F9.0
sg29
F26.0
sg30
I01
sg31
I00
sg32
F0.0
sg33
F0.21
sg12
g3222
sbsbag1
(g2
g3
Ntp3229
Rp3230
(dp3231
g7
g1
(g8
g3
Ntp3232
Rp3233
(dp3234
g12
g13
(S'\x07\xda\x02\n\x00\x00\x00\x00\x00\x00'
p3235
tp3236
Rp3237
sg17
VW
p3238
sg19
VBelmont-North Main
p3239
sg21
V10944
p3240
sbsg23
g1
(g24
g3
Ntp3241
Rp3242
(dp3243
g28
F8.0
sg29
F23.0
sg30
I01
sg31
I00
sg32
F0.0
sg33
F0.01
sg12
g3237
sbsbag1
(g2
g3
Ntp3244
Rp3245
(dp3246
g7
g1
(g8
g3
Ntp3247
Rp3248
(dp3249
g12
g13
(S'\x07\xda\x02\x0b\x00\x00\x00\x00\x00\x00'
p3250
tp3251
Rp3252
sg17
VW
p3253
sg19
VBelmont-North Main
p3254
sg21
V11210
p3255
sbsg23
g1
(g24
g3
Ntp3256
Rp3257
(dp3258
g28
F6.0
sg29
F20.0
sg30
I00
sg31
I00
sg32
F0.0
sg33
F0.0
sg12
g3252
sbsbag1
(g2
g3
Ntp3259
Rp3260
(dp3261
g7
g1
(g8
g3
Ntp3262
Rp3263
(dp3264
g12
g13
(S'\x07\xda\x02\x0c\x00\x00\x00\x00\x00\x00'
p3265
tp3266
Rp3267
sg17
VW
p3268
sg19
VBelmont-North Main
p3269
sg21
V11381
p3270
sbsg23
g1
(g24
g3
Ntp3271
Rp3272
(dp3273
g28
F6.0
sg29
F24.0
sg30
I00
sg31
I00
sg32
F0.0
sg33
F0.0
sg12
g3267
sbsbag1
(g2
g3
Ntp3274
Rp3275
(dp3276
g7
g1
(g8
g3
Ntp3277
Rp3278
(dp3279
g12
g13
(S'\x07\xda\x02\r\x00\x00\x00\x00\x00\x00'
p3280
tp3281
Rp3282
sg17
VA
p3283
sg19
VBelmont-North Main
p3284
sg21
V9842
p3285
sbsg23
g1
(g24
g3
Ntp3286
Rp3287
(dp3288
g28
F5.0
sg29
F22.0
sg30
I00
sg31
I00
sg32
F0.0
sg33
F0.0
sg12
g3282
sbsbag1
(g2
g3
Ntp3289
Rp3290
(dp3291
g7
g1
(g8
g3
Ntp3292
Rp3293
(dp3294
g12
g13
(S'\x07\xda\x02\x0e\x00\x00\x00\x00\x00\x00'
p3295
tp3296
Rp3297
sg17
VU
p3298
sg19
VBelmont-North Main
p3299
sg21
V7637
p3300
sbsg23
g1
(g24
g3
Ntp3301
Rp3302
(dp3303
g28
F4.0
sg29
F20.0
sg30
I00
sg31
I00
sg32
F0.0
sg33
F0.0
sg12
g3297
sbsbag1
(g2
g3
Ntp3304
Rp3305
(dp3306
g7
g1
(g8
g3
Ntp3307
Rp3308
(dp3309
g12
g13
(S'\x07\xda\x02\x0f\x00\x00\x00\x00\x00\x00'
p3310
tp3311
Rp3312
sg17
VW
p3313
sg19
VBelmont-North Main
p3314
sg21
V8711
p3315
sbsg23
g1
(g24
g3
Ntp3316
Rp3317
(dp3318
g28
F4.0
sg29
F22.0
sg30
I01
sg31
I00
sg32
F0.0
sg33
F0.0
sg12
g3312
sbsbag1
(g2
g3
Ntp3319
Rp3320
(dp3321
g7
g1
(g8
g3
Ntp3322
Rp3323
(dp3324
g12
g13
(S'\x07\xda\x02\x10\x00\x00\x00\x00\x00\x00'
p3325
tp3326
Rp3327
sg17
VW
p3328
sg19
VBelmont-North Main
p3329
sg21
V10587
p3330
sbsg23
g1
(g24
g3
Ntp3331
Rp3332
(dp3333
g28
F4.0
sg29
F29.0
sg30
I01
sg31
I00
sg32
F0.0
sg33
F0.0
sg12
g3327
sbsbag1
(g2
g3
Ntp3334
Rp3335
(dp3336
g7
g1
(g8
g3
Ntp3337
Rp3338
(dp3339
g12
g13
(S'\x07\xda\x02\x11\x00\x00\x00\x00\x00\x00'
p3340
tp3341
Rp3342
sg17
VW
p3343
sg19
VBelmont-North Main
p3344
sg21
V10857
p3345
sbsg23
g1
(g24
g3
Ntp3346
Rp3347
(dp3348
g28
F3.0
sg29
F30.0
sg30
I00
sg31
I00
sg32
F0.0
sg33
F0.0
sg12
g3342
sbsbag1
(g2
g3
Ntp3349
Rp3350
(dp3351
g7
g1
(g8
g3
Ntp3352
Rp3353
(dp3354
g12
g13
(S'\x07\xda\x02\x12\x00\x00\x00\x00\x00\x00'
p3355
tp3356
Rp3357
sg17
VW
p3358
sg19
VBelmont-North Main
p3359
sg21
V11104
p3360
sbsg23
g1
(g24
g3
Ntp3361
Rp3362
(dp3363
g28
F3.0
sg29
F34.0
sg30
I00
sg31
I00
sg32
F0.0
sg33
F0.0
sg12
g3357
sbsbag1
(g2
g3
Ntp3364
Rp3365
(dp3366
g7
g1
(g8
g3
Ntp3367
Rp3368
(dp3369
g12
g13
(S'\x07\xda\x02\x13\x00\x00\x00\x00\x00\x00'
p3370
tp3371
Rp3372
sg17
VW
p3373
sg19
VBelmont-North Main
p3374
sg21
V11755
p3375
sbsg23
g1
(g24
g3
Ntp3376
Rp3377
(dp3378
g28
F2.0
sg29
F32.0
sg30
I00
sg31
I00
sg32
F0.0
sg33
F0.0
sg12
g3372
sbsbag1
(g2
g3
Ntp3379
Rp3380
(dp3381
g7
g1
(g8
g3
Ntp3382
Rp3383
(dp3384
g12
g13
(S'\x07\xda\x02\x14\x00\x00\x00\x00\x00\x00'
p3385
tp3386
Rp3387
sg17
VA
p3388
sg19
VBelmont-North Main
p3389
sg21
V9426
p3390
sbsg23
g1
(g24
g3
Ntp3391
Rp3392
(dp3393
g28
F1.0
sg29
F34.0
sg30
I01
sg31
I00
sg32
F0.0
sg33
F0.0
sg12
g3387
sbsbag1
(g2
g3
Ntp3394
Rp3395
(dp3396
g7
g1
(g8
g3
Ntp3397
Rp3398
(dp3399
g12
g13
(S'\x07\xda\x02\x15\x00\x00\x00\x00\x00\x00'
p3400
tp3401
Rp3402
sg17
VU
p3403
sg19
VBelmont-North Main
p3404
sg21
V6537
p3405
sbsg23
g1
(g24
g3
Ntp3406
Rp3407
(dp3408
g28
F1.0
sg29
F34.0
sg30
I01
sg31
I01
sg32
F0.0
sg33
F0.31
sg12
g3402
sbsbag1
(g2
g3
Ntp3409
Rp3410
(dp3411
g7
g1
(g8
g3
Ntp3412
Rp3413
(dp3414
g12
g13
(S'\x07\xda\x02\x16\x00\x00\x00\x00\x00\x00'
p3415
tp3416
Rp3417
sg17
VW
p3418
sg19
VBelmont-North Main
p3419
sg21
V10114
p3420
sbsg23
g1
(g24
g3
Ntp3421
Rp3422
(dp3423
g28
F2.0
sg29
F32.0
sg30
I01
sg31
I00
sg32
F0.0
sg33
F0.14
sg12
g3417
sbsbag1
(g2
g3
Ntp3424
Rp3425
(dp3426
g7
g1
(g8
g3
Ntp3427
Rp3428
(dp3429
g12
g13
(S'\x07\xda\x02\x17\x00\x00\x00\x00\x00\x00'
p3430
tp3431
Rp3432
sg17
VW
p3433
sg19
VBelmont-North Main
p3434
sg21
V10739
p3435
sbsg23
g1
(g24
g3
Ntp3436
Rp3437
(dp3438
g28
F2.0
sg29
F28.0
sg30
I01
sg31
I00
sg32
F0.0
sg33
F0.0
sg12
g3432
sbsbag1
(g2
g3
Ntp3439
Rp3440
(dp3441
g7
g1
(g8
g3
Ntp3442
Rp3443
(dp3444
g12
g13
(S'\x07\xda\x02\x18\x00\x00\x00\x00\x00\x00'
p3445
tp3446
Rp3447
sg17
VW
p3448
sg19
VBelmont-North Main
p3449
sg21
V10555
p3450
sbsg23
g1
(g24
g3
Ntp3451
Rp3452
(dp3453
g28
F3.0
sg29
F26.0
sg30
I01
sg31
I00
sg32
F0.0
sg33
F0.0
sg12
g3447
sbsbag1
(g2
g3
Ntp3454
Rp3455
(dp3456
g7
g1
(g8
g3
Ntp3457
Rp3458
(dp3459
g12
g13
(S'\x07\xda\x02\x19\x00\x00\x00\x00\x00\x00'
p3460
tp3461
Rp3462
sg17
VW
p3463
sg19
VBelmont-North Main
p3464
sg21
V11147
p3465
sbsg23
g1
(g24
g3
Ntp3466
Rp3467
(dp3468
g28
F3.0
sg29
F26.0
sg30
I01
sg31
I00
sg32
F0.0
sg33
F0.01
sg12
g3462
sbsbag1
(g2
g3
Ntp3469
Rp3470
(dp3471
g7
g1
(g8
g3
Ntp3472
Rp3473
(dp3474
g12
g13
(S'\x07\xda\x02\x1a\x00\x00\x00\x00\x00\x00'
p3475
tp3476
Rp3477
sg17
VW
p3478
sg19
VBelmont-North Main
p3479
sg21
V11255
p3480
sbsg23
g1
(g24
g3
Ntp3481
Rp3482
(dp3483
g28
F3.0
sg29
F26.0
sg30
I01
sg31
I00
sg32
F0.0
sg33
F0.0
sg12
g3477
sbsbag1
(g2
g3
Ntp3484
Rp3485
(dp3486
g7
g1
(g8
g3
Ntp3487
Rp3488
(dp3489
g12
g13
(S'\x07\xda\x02\x1b\x00\x00\x00\x00\x00\x00'
p3490
tp3491
Rp3492
sg17
VA
p3493
sg19
VBelmont-North Main
p3494
sg21
V9474
p3495
sbsg23
g1
(g24
g3
Ntp3496
Rp3497
(dp3498
g28
F2.0
sg29
F31.0
sg30
I01
sg31
I00
sg32
F0.0
sg33
F0.0
sg12
g3492
sbsba.