(lp0
ccopy_reg
_reconstructor
p1
(c__main__
WeatherData
p2
c__builtin__
object
p3
Ntp4
Rp5
(dp6
S'snow_depth'
p7
F3.0
sS'temp'
p8
F32.0
sS'snow'
p9
I00
sS'rain'
p10
I00
sS'snow_fall'
p11
F0.0
sS'rain_fall'
p12
F0.0
sS'date'
p13
cdatetime
datetime
p14
(S'\x07\xd9\x02\x01\x00\x00\x00\x00\x00\x00'
p15
tp16
Rp17
sbag1
(g2
g3
Ntp18
Rp19
(dp20
g7
F3.0
sg8
F19.0
sg9
I00
sg10
I00
sg11
F0.0
sg12
F0.0
sg13
g14
(S'\x07\xd9\x02\x02\x00\x00\x00\x00\x00\x00'
p21
tp22
Rp23
sbag1
(g2
g3
Ntp24
Rp25
(dp26
g7
F3.0
sg8
F11.0
sg9
I01
sg10
I00
sg11
F0.0
sg12
F0.0
sg13
g14
(S'\x07\xd9\x02\x03\x00\x00\x00\x00\x00\x00'
p27
tp28
Rp29
sbag1
(g2
g3
Ntp30
Rp31
(dp32
g7
F3.0
sg8
F10.0
sg9
I01
sg10
I00
sg11
F0.0
sg12
F0.0
sg13
g14
(S'\x07\xd9\x02\x04\x00\x00\x00\x00\x00\x00'
p33
tp34
Rp35
sbag1
(g2
g3
Ntp36
Rp37
(dp38
g7
F3.0
sg8
F16.0
sg9
I00
sg10
I00
sg11
F0.0
sg12
F0.0
sg13
g14
(S'\x07\xd9\x02\x05\x00\x00\x00\x00\x00\x00'
p39
tp40
Rp41
sbag1
(g2
g3
Ntp42
Rp43
(dp44
g7
F3.0
sg8
F30.0
sg9
I00
sg10
I00
sg11
F0.0
sg12
F0.0
sg13
g14
(S'\x07\xd9\x02\x06\x00\x00\x00\x00\x00\x00'
p45
tp46
Rp47
sbag1
(g2
g3
Ntp48
Rp49
(dp50
g7
I-1
sg8
F49.0
sg9
I00
sg10
I00
sg11
F0.0
sg12
F0.0
sg13
g14
(S'\x07\xd9\x02\x07\x00\x00\x00\x00\x00\x00'
p51
tp52
Rp53
sbag1
(g2
g3
Ntp54
Rp55
(dp56
g7
I-1
sg8
F35.0
sg9
I00
sg10
I00
sg11
F0.0
sg12
F0.0
sg13
g14
(S'\x07\xd9\x02\x08\x00\x00\x00\x00\x00\x00'
p57
tp58
Rp59
sbag1
(g2
g3
Ntp60
Rp61
(dp62
g7
I-1
sg8
F40.0
sg9
I00
sg10
I01
sg11
F0.0
sg12
F0.13
sg13
g14
(S'\x07\xd9\x02\t\x00\x00\x00\x00\x00\x00'
p63
tp64
Rp65
sbag1
(g2
g3
Ntp66
Rp67
(dp68
g7
I-1
sg8
F56.0
sg9
I00
sg10
I00
sg11
F0.0
sg12
F0.0
sg13
g14
(S'\x07\xd9\x02\n\x00\x00\x00\x00\x00\x00'
p69
tp70
Rp71
sbag1
(g2
g3
Ntp72
Rp73
(dp74
g7
I-1
sg8
F44.0
sg9
I00
sg10
I01
sg11
F0.0
sg12
F0.64
sg13
g14
(S'\x07\xd9\x02\x0b\x00\x00\x00\x00\x00\x00'
p75
tp76
Rp77
sbag1
(g2
g3
Ntp78
Rp79
(dp80
g7
I-1
sg8
F34.0
sg9
I00
sg10
I00
sg11
F0.0
sg12
F0.0
sg13
g14
(S'\x07\xd9\x02\x0c\x00\x00\x00\x00\x00\x00'
p81
tp82
Rp83
sbag1
(g2
g3
Ntp84
Rp85
(dp86
g7
I-1
sg8
F30.0
sg9
I01
sg10
I00
sg11
F0.0
sg12
F0.0
sg13
g14
(S'\x07\xd9\x02\r\x00\x00\x00\x00\x00\x00'
p87
tp88
Rp89
sbag1
(g2
g3
Ntp90
Rp91
(dp92
g7
I-1
sg8
F28.0
sg9
I01
sg10
I00
sg11
F0.0
sg12
F0.01
sg13
g14
(S'\x07\xd9\x02\x0e\x00\x00\x00\x00\x00\x00'
p93
tp94
Rp95
sbag1
(g2
g3
Ntp96
Rp97
(dp98
g7
I-1
sg8
F24.0
sg9
I01
sg10
I00
sg11
F0.0
sg12
F0.0
sg13
g14
(S'\x07\xd9\x02\x0f\x00\x00\x00\x00\x00\x00'
p99
tp100
Rp101
sbag1
(g2
g3
Ntp102
Rp103
(dp104
g7
I-1
sg8
F26.0
sg9
I00
sg10
I00
sg11
F0.0
sg12
F0.0
sg13
g14
(S'\x07\xd9\x02\x10\x00\x00\x00\x00\x00\x00'
p105
tp106
Rp107
sbag1
(g2
g3
Ntp108
Rp109
(dp110
g7
I-1
sg8
F34.0
sg9
I01
sg10
I00
sg11
F0.0
sg12
F0.01
sg13
g14
(S'\x07\xd9\x02\x11\x00\x00\x00\x00\x00\x00'
p111
tp112
Rp113
sbag1
(g2
g3
Ntp114
Rp115
(dp116
g7
I-1
sg8
F30.0
sg9
I01
sg10
I01
sg11
F0.0
sg12
F0.38
sg13
g14
(S'\x07\xd9\x02\x12\x00\x00\x00\x00\x00\x00'
p117
tp118
Rp119
sbag1
(g2
g3
Ntp120
Rp121
(dp122
g7
I-1
sg8
F16.0
sg9
I00
sg10
I00
sg11
F0.0
sg12
F0.0
sg13
g14
(S'\x07\xd9\x02\x13\x00\x00\x00\x00\x00\x00'
p123
tp124
Rp125
sbag1
(g2
g3
Ntp126
Rp127
(dp128
g7
I-1
sg8
F20.0
sg9
I00
sg10
I00
sg11
F0.0
sg12
F0.0
sg13
g14
(S'\x07\xd9\x02\x14\x00\x00\x00\x00\x00\x00'
p129
tp130
Rp131
sbag1
(g2
g3
Ntp132
Rp133
(dp134
g7
F3.0
sg8
F24.0
sg9
I01
sg10
I00
sg11
F0.0
sg12
F0.11
sg13
g14
(S'\x07\xd9\x02\x15\x00\x00\x00\x00\x00\x00'
p135
tp136
Rp137
sbag1
(g2
g3
Ntp138
Rp139
(dp140
g7
F2.0
sg8
F20.0
sg9
I01
sg10
I00
sg11
F0.0
sg12
F0.0
sg13
g14
(S'\x07\xd9\x02\x16\x00\x00\x00\x00\x00\x00'
p141
tp142
Rp143
sbag1
(g2
g3
Ntp144
Rp145
(dp146
g7
F2.0
sg8
F18.0
sg9
I00
sg10
I00
sg11
F0.0
sg12
F0.0
sg13
g14
(S'\x07\xd9\x02\x17\x00\x00\x00\x00\x00\x00'
p147
tp148
Rp149
sbag1
(g2
g3
Ntp150
Rp151
(dp152
g7
F2.0
sg8
F30.0
sg9
I00
sg10
I00
sg11
F0.0
sg12
F0.0
sg13
g14
(S'\x07\xd9\x02\x18\x00\x00\x00\x00\x00\x00'
p153
tp154
Rp155
sbag1
(g2
g3
Ntp156
Rp157
(dp158
g7
F1.0
sg8
F45.0
sg9
I00
sg10
I00
sg11
F0.0
sg12
F0.0
sg13
g14
(S'\x07\xd9\x02\x19\x00\x00\x00\x00\x00\x00'
p159
tp160
Rp161
sbag1
(g2
g3
Ntp162
Rp163
(dp164
g7
I-1
sg8
F44.0
sg9
I00
sg10
I01
sg11
F0.0
sg12
F1.66
sg13
g14
(S'\x07\xd9\x02\x1a\x00\x00\x00\x00\x00\x00'
p165
tp166
Rp167
sbag1
(g2
g3
Ntp168
Rp169
(dp170
g7
I-1
sg8
F36.0
sg9
I01
sg10
I01
sg11
F0.0
sg12
F0.06
sg13
g14
(S'\x07\xd9\x02\x1b\x00\x00\x00\x00\x00\x00'
p171
tp172
Rp173
sba.